Archive member included to satisfy reference by file (symbol)

/usr/lib/arm-linux-gnueabihf/libc_nonshared.a(elf-init.oS)
                              /usr/bin/../lib/gcc/arm-linux-gnueabihf/4.8/../../../arm-linux-gnueabihf/crt1.o (__libc_csu_init)
/usr/bin/../lib/gcc/arm-linux-gnueabihf/4.8/libgcc.a(_udivsi3.o)
                              build/memio.o (__aeabi_uidiv)
/usr/bin/../lib/gcc/arm-linux-gnueabihf/4.8/libgcc.a(_divsi3.o)
                              build/am_map.o (__aeabi_idiv)
/usr/bin/../lib/gcc/arm-linux-gnueabihf/4.8/libgcc.a(_umodsi3.o)
                              build/r_data.o (__umodsi3)
/usr/bin/../lib/gcc/arm-linux-gnueabihf/4.8/libgcc.a(_modsi3.o)
                              build/g_game.o (__modsi3)
/usr/bin/../lib/gcc/arm-linux-gnueabihf/4.8/libgcc.a(_aeabi_ldivmod.o)
                              build/m_fixed.o (__aeabi_ldivmod)
/usr/bin/../lib/gcc/arm-linux-gnueabihf/4.8/libgcc.a(_dvmd_lnx.o)
                              /usr/bin/../lib/gcc/arm-linux-gnueabihf/4.8/libgcc.a(_udivsi3.o) (__aeabi_idiv0)
/usr/bin/../lib/gcc/arm-linux-gnueabihf/4.8/libgcc.a(bpabi.o)
                              /usr/bin/../lib/gcc/arm-linux-gnueabihf/4.8/libgcc.a(_aeabi_ldivmod.o) (__gnu_ldivmod_helper)
/usr/bin/../lib/gcc/arm-linux-gnueabihf/4.8/libgcc.a(_divdi3.o)
                              /usr/bin/../lib/gcc/arm-linux-gnueabihf/4.8/libgcc.a(bpabi.o) (__divdi3)
/usr/bin/../lib/gcc/arm-linux-gnueabihf/4.8/libgcc.a(_udivdi3.o)
                              /usr/bin/../lib/gcc/arm-linux-gnueabihf/4.8/libgcc.a(bpabi.o) (__udivdi3)

Allocating common symbols
Common symbol       size              file

secondslidefrac     0x4               build/p_map.o
bottomtexture       0x4               build/r_segs.o
curline             0x4               build/r_bsp.o
nodrawers           0x4               build/g_game.o
dccount             0x4               build/r_draw.o
savegamestrings     0xf0              build/m_menu.o
extralight          0x4               build/r_main.o
usergame            0x4               build/g_game.o
casttics            0x4               build/f_finale.o
d_map               0x4               build/g_game.o
displayplayer       0x4               build/g_game.o
sendpause           0x4               build/g_game.o
linecount           0x4               build/r_main.o
netgame             0x4               build/g_game.o
startskill          0x4               build/d_main.o
main_e              0x4               build/m_menu.o
advancedemo         0x4               build/d_main.o
bmaporgy            0x4               build/p_setup.o
activeceilings      0x78              build/p_ceilng.o
rw_x                0x4               build/r_segs.o
slidemo             0x4               build/p_map.o
cachedheight        0x320             build/r_plane.o
switchlist          0x190             build/p_switch.o
levelstarttic       0x4               build/g_game.o
sttminus            0x4               build/st_lib.o
screenvisible       0x4               build/i_video.o
centerxfrac         0x4               build/r_main.o
rw_angle1           0x4               build/r_segs.o
viletryx            0x4               build/p_enemy.o
mceilingclip        0x4               build/r_things.o
sightcounts         0x8               build/p_sight.o
itemOn              0x2               build/m_menu.o
sprtopscreen        0x4               build/r_things.o
topfrac             0x4               build/r_segs.o
nofit               0x4               build/p_map.o
bestslidefrac       0x4               build/p_map.o
intercepts          0x8dc             build/p_maputl.o
bottomslope         0x4               build/p_sight.o
segs                0x4               build/p_setup.o
tmthing             0x4               build/p_map.o
castnum             0x4               build/f_finale.o
newvissprite        0x4               build/r_things.o
ds_y                0x4               build/r_draw.o
deathmatch_p        0x4               build/p_setup.o
pixhigh             0x4               build/r_segs.o
ds_x2               0x4               build/r_draw.o
st_backing_screen   0x4               build/st_stuff.o
visplanes           0x14c00           build/r_plane.o
viewangleoffset     0x4               build/r_main.o
numsubsectors       0x4               build/p_setup.o
mousex              0x4               build/g_game.o
colfunc             0x4               build/r_main.o
saveOldString       0x18              build/m_menu.o
floorplane          0x4               build/r_plane.o
transcolfunc        0x4               build/r_main.o
deathmatchstarts    0x64              build/p_setup.o
lastpatch           0x4               build/r_data.o
scaledviewwidth     0x4               build/r_draw.o
lasttime            0x4               build/d_loop.o
screenheightarray   0x280             build/r_things.o
firstflat           0x4               build/r_data.o
mainzone            0x4               build/z_zone.o
newend              0x4               build/r_bsp.o
levelTimeCount      0x4               build/p_spec.o
tempstring          0x50              build/m_menu.o
dc_x                0x4               build/r_draw.o
playeringame        0x10              build/g_game.o
numsides            0x4               build/p_setup.o
rw_distance         0x4               build/r_segs.o
basecolfunc         0x4               build/r_main.o
gameepisode         0x4               build/g_game.o
ds_ystep            0x4               build/r_draw.o
texturecolumnlump   0x4               build/r_data.o
lumpinfo            0x4               build/w_wad.o
currentMenu         0x4               build/m_menu.o
vileobj             0x4               build/p_enemy.o
ylookup             0xd00             build/r_draw.o
savegame_error      0x4               build/p_saveg.o
netdemo             0x4               build/g_game.o
drawsegs            0x3000            build/r_bsp.o
earlyout            0x4               build/p_maputl.o
epi                 0x4               build/m_menu.o
baseyscale          0x4               build/r_plane.o
numtextures         0x4               build/r_data.o
blockmaplump        0x4               build/p_setup.o
mousey              0x4               build/g_game.o
autostart           0x4               build/d_main.o
numbraintargets     0x4               build/p_enemy.o
rw_scale            0x4               build/r_segs.o
yslope              0x320             build/r_plane.o
demoend             0x4               build/g_game.o
spryscale           0x4               build/r_things.o
mapdir              0x400             build/d_main.o
rw_normalangle      0x4               build/r_segs.o
skytexturemid       0x4               build/r_sky.o
demorecording       0x4               build/g_game.o
linedef             0x4               build/r_bsp.o
saveStringEnter     0x4               build/m_menu.o
inhelpscreens       0x4               build/m_menu.o
message_dontfuckwithme
                    0x4               build/hu_stuff.o
startloadgame       0x4               build/d_main.o
usething            0x4               build/p_map.o
shootthing          0x4               build/p_map.o
messageRoutine      0x4               build/m_menu.o
ds_yfrac            0x4               build/r_draw.o
itemrespawntime     0x200             build/p_mobj.o
startmap            0x4               build/d_main.o
attackrange         0x4               build/p_map.o
finaletext          0x4               build/f_finale.o
sound_e             0x4               build/m_menu.o
timelimit           0x4               build/g_game.o
rw_scalestep        0x4               build/r_segs.o
detailshift         0x4               build/r_main.o
viewplayer          0x4               build/r_main.o
loopcount           0x4               build/r_main.o
consistancy         0x200             build/g_game.o
projection          0x4               build/r_main.o
floatok             0x4               build/p_map.o
spritelights        0x4               build/r_things.o
spanstop            0x320             build/r_plane.o
demosequence        0x4               build/d_main.o
messx               0x4               build/m_menu.o
tmx                 0x4               build/p_map.o
swingy              0x4               build/p_pspr.o
leveltime           0x4               build/p_tick.o
ds_colormap         0x4               build/r_draw.o
finalestage         0x4               build/f_finale.o
gameaction          0x4               build/g_game.o
maxframe            0x4               build/r_things.o
sprtemp             0x32c             build/r_things.o
dc_iscale           0x4               build/r_draw.o
dirtybox            0x10              build/v_video.o
numswitches         0x4               build/p_switch.o
corpsehit           0x4               build/p_enemy.o
rw_midtexturemid    0x4               build/r_segs.o
finalecount         0x4               build/f_finale.o
read_e2             0x4               build/m_menu.o
dc_colormap         0x4               build/r_draw.o
d_skill             0x4               build/g_game.o
sides               0x4               build/p_setup.o
centery             0x4               build/r_main.o
rw_toptexturemid    0x4               build/r_segs.o
texturecompositesize
                    0x4               build/r_data.o
save_stream         0x4               build/p_saveg.o
viewheight          0x4               build/r_draw.o
t2x                 0x4               build/p_sight.o
skytexture          0x4               build/r_sky.o
maskedtexture       0x4               build/r_segs.o
startepisode        0x4               build/d_main.o
bodyque             0x80              build/g_game.o
solidsegs           0x100             build/r_bsp.o
numspritelumps      0x4               build/r_data.o
skullAnimCounter    0x2               build/m_menu.o
worldlow            0x4               build/r_segs.o
respawnparm         0x4               build/d_main.o
numlinespecials     0x2               build/p_spec.o
textures_hashtable  0x4               build/r_data.o
chat_on             0x4               build/hu_stuff.o
firstspritelump     0x4               build/r_data.o
floorfunc           0x4               build/r_plane.o
sendsave            0x4               build/g_game.o
sprites             0x4               build/r_things.o
endstring           0xa0              build/m_menu.o
tmceilingz          0x4               build/p_map.o
demoname            0x4               build/g_game.o
setsizeneeded       0x4               build/r_main.o
crushchange         0x4               build/p_map.o
numpatches          0x4               build/r_data.o
gamemap             0x4               build/g_game.o
strace              0x10              build/p_sight.o
spanstart           0x320             build/r_plane.o
subsectors          0x4               build/p_setup.o
gamestate           0x4               build/g_game.o
myargv              0x4               build/m_argv.o
colormaps           0x4               build/r_data.o
castdeath           0x4               build/f_finale.o
tmflags             0x4               build/p_map.o
spritememory        0x4               build/r_data.o
viewwindowy         0x4               build/r_draw.o
wminfo              0xc8              build/g_game.o
screenSize          0x4               build/m_menu.o
firstpatch          0x4               build/r_data.o
activeplats         0x78              build/p_plats.o
starttime           0x4               build/g_game.o
title               0x80              build/d_main.o
numlines            0x4               build/p_setup.o
iwadfile            0x4               build/d_main.o
braintargets        0x80              build/p_enemy.o
totalkills          0x4               build/g_game.o
lastopening         0x4               build/r_plane.o
configdir           0x4               build/m_config.o
ptflags             0x4               build/p_maputl.o
totalitems          0x4               build/g_game.o
texturetranslation  0x4               build/r_data.o
pagename            0x4               build/d_main.o
rw_bottomtexturemid
                    0x4               build/r_segs.o
markfloor           0x4               build/r_segs.o
la_damage           0x4               build/p_map.o
viewy               0x4               build/r_main.o
load_e              0x4               build/m_menu.o
viewimage           0x4               build/r_draw.o
intercept_p         0x4               build/p_maputl.o
maskedtexturecol    0x4               build/r_segs.o
playerstarts        0x28              build/p_setup.o
gamedescription     0x4               build/doomstat.o
castframes          0x4               build/f_finale.o
spritetopoffset     0x4               build/r_data.o
iquehead            0x4               build/p_mobj.o
dc_texturemid       0x4               build/r_draw.o
secondslideline     0x4               build/p_map.o
stlcd               0x2c              build/lcdtext.o
topstep             0x4               build/r_segs.o
rw_stopx            0x4               build/r_segs.o
pixlowstep          0x4               build/r_segs.o
respawnmonsters     0x4               build/g_game.o
nodes               0x4               build/p_setup.o
flatmemory          0x4               build/r_data.o
players             0x480             build/g_game.o
toptexture          0x4               build/r_segs.o
testcontrols_mousespeed
                    0x4               build/g_game.o
options_e           0x4               build/m_menu.o
dc_source           0x4               build/r_draw.o
itemrespawnque      0x500             build/p_mobj.o
key_multi_msgplayer
                    0x20              build/m_controls.o
nomonsters          0x4               build/d_main.o
modifiedgame        0x4               build/doomstat.o
savegamelength      0x4               build/p_saveg.o
columnofs           0x1180            build/r_draw.o
backsector          0x4               build/r_bsp.o
translations        0x300             build/r_draw.o
spriteoffset        0x4               build/r_data.o
openrange           0x4               build/p_maputl.o
bfgedition          0x4               build/d_main.o
cacheddistance      0x320             build/r_plane.o
lastvisplane        0x4               build/r_plane.o
lowfloor            0x4               build/p_maputl.o
pixlow              0x4               build/r_segs.o
castattacking       0x4               build/f_finale.o
timingdemo          0x4               build/g_game.o
texturecomposite    0x4               build/r_data.o
scalelight          0xc00             build/r_main.o
bmaporgx            0x4               build/p_setup.o
floorclip           0x280             build/r_plane.o
ceilingfunc         0x4               build/r_plane.o
skyflatnum          0x4               build/r_sky.o
texturememory       0x4               build/r_data.o
viletryy            0x4               build/p_enemy.o
numsprites          0x4               build/r_things.o
segtextured         0x4               build/r_segs.o
frontsector         0x4               build/r_bsp.o
viewangletox        0x4000            build/r_main.o
bombsource          0x4               build/p_map.o
ds_p                0x4               build/r_bsp.o
viewactive          0x4               build/g_game.o
numnodes            0x4               build/p_setup.o
viewwidth           0x4               build/r_draw.o
cachedystep         0x320             build/r_plane.o
linespeciallist     0x100             build/p_spec.o
texturecolumnofs    0x4               build/r_data.o
lowres_turn         0x4               build/g_game.o
opentop             0x4               build/p_maputl.o
markceiling         0x4               build/r_segs.o
viewsin             0x4               build/r_main.o
newgame_e           0x4               build/m_menu.o
scalelightfixed     0xc0              build/r_main.o
quickSaveSlot       0x4               build/m_menu.o
castonmelee         0x4               build/f_finale.o
demo_p              0x4               build/g_game.o
savegamedir         0x4               build/d_main.o
translationtables   0x4               build/r_draw.o
wadfile             0x400             build/d_main.o
fastparm            0x4               build/d_main.o
numflats            0x4               build/r_data.o
pspriteiscale       0x4               build/r_things.o
linetarget          0x4               build/p_map.o
sidedef             0x4               build/r_bsp.o
offsetms            0x4               build/d_loop.o
lastflat            0x4               build/r_data.o
topslope            0x4               build/p_sight.o
messageNeedsInput   0x4               build/m_menu.o
ds_x1               0x4               build/r_draw.o
onground            0x4               build/p_user.o
bodyqueslot         0x4               build/g_game.o
messageLastMenuActive
                    0x4               build/m_menu.o
gametic             0x4               build/d_loop.o
bombdamage          0x4               build/p_map.o
vissprites          0x1e00            build/r_things.o
bombspot            0x4               build/p_map.o
episodes_e          0x4               build/m_menu.o
ds_xstep            0x4               build/r_draw.o
openings            0xa000            build/r_plane.o
shootz              0x4               build/p_map.o
vertexes            0x4               build/p_setup.o
savename            0x100             build/g_game.o
numspechit          0x4               build/p_map.o
singledemo          0x4               build/g_game.o
saveSlot            0x4               build/m_menu.o
spechit             0x50              build/p_map.o
menuactive          0x4               build/m_menu.o
spritewidth         0x4               build/r_data.o
cd_Error            0x4               build/i_cdmus.o
blocklinks          0x4               build/p_setup.o
ticdup              0x4               build/d_loop.o
basexscale          0x4               build/r_plane.o
setblocks           0x4               build/r_main.o
centeryfrac         0x4               build/r_main.o
walllights          0x4               build/r_segs.o
setdetail           0x4               build/r_main.o
bottomfrac          0x4               build/r_segs.o
gameskill           0x4               build/g_game.o
viewcos             0x4               build/r_main.o
blockmap            0x4               build/p_setup.o
planezlight         0x4               build/r_plane.o
finaleflat          0x4               build/f_finale.o
lastanim            0x4               build/p_spec.o
numsectors          0x4               build/p_setup.o
iquetail            0x4               build/p_mobj.o
caststate           0x4               build/f_finale.o
texturewidthmask    0x4               build/r_data.o
flattranslation     0x4               build/r_data.o
spritename          0x4               build/r_things.o
tmy                 0x4               build/p_map.o
bmapheight          0x4               build/p_setup.o
zlight              0x2000            build/r_main.o
swingx              0x4               build/p_pspr.o
chat_char           0x1               build/hu_stuff.o
midtexture          0x4               build/r_segs.o
vsprsortedhead      0x3c              build/r_things.o
bmapwidth           0x4               build/p_setup.o
messy               0x4               build/m_menu.o
oldgamestate        0x4               build/g_game.o
numsegs             0x4               build/p_setup.o
xtoviewangle        0x504             build/r_main.o
aimslope            0x4               build/p_map.o
trace               0x10              build/p_maputl.o
messageToPrint      0x4               build/m_menu.o
rw_offset           0x4               build/r_segs.o
lastspritelump      0x4               build/r_data.o
textures            0x4               build/r_data.o
myargc              0x4               build/m_argv.o
levelTimer          0x4               build/p_spec.o
dscount             0x4               build/r_draw.o
tmdropoffz          0x4               build/p_map.o
viewangle           0x4               build/r_main.o
t2y                 0x4               build/p_sight.o
worldbottom         0x4               build/r_segs.o
negonearray         0x280             build/r_things.o
overflowsprite      0x3c              build/r_things.o
centerx             0x4               build/r_main.o
clipangle           0x4               build/r_main.o
fixedcolormap       0x4               build/r_main.o
storedemo           0x4               build/d_main.o
thinkercap          0xc               build/p_tick.o
dc_yl               0x4               build/r_draw.o
dc_yh               0x4               build/r_draw.o
whichSkull          0x2               build/m_menu.o
secretexit          0x4               build/g_game.o
planeheight         0x4               build/r_plane.o
ceilingplane        0x4               build/r_plane.o
rw_centerangle      0x4               build/r_segs.o
bulletslope         0x4               build/p_pspr.o
distscale           0x500             build/r_plane.o
ds_source           0x4               build/r_draw.o
totalsecret         0x4               build/g_game.o
sightzstart         0x4               build/p_sight.o
mfloorclip          0x4               build/r_things.o
cachedxstep         0x320             build/r_plane.o
longtics            0x4               build/g_game.o
pspritescale        0x4               build/r_things.o
spanfunc            0x4               build/r_main.o
devparm             0x4               build/d_main.o
soundtarget         0x4               build/p_enemy.o
tmxmove             0x4               build/p_map.o
ceilingline         0x4               build/p_map.o
pixhighstep         0x4               build/r_segs.o
paused              0x4               build/g_game.o
deathmatch          0x4               build/g_game.o
numvertexes         0x4               build/p_setup.o
pagetic             0x4               build/d_main.o
lines               0x4               build/p_setup.o
bottomstep          0x4               build/r_segs.o
sectors             0x4               build/p_setup.o
textureheight       0x4               build/r_data.o
sscount             0x4               build/r_main.o
worldhigh           0x4               build/r_segs.o
viewx               0x4               build/r_main.o
specials_e          0x4               build/p_saveg.o
hu_font             0xfc              build/hu_stuff.o
viewz               0x4               build/r_main.o
consoleplayer       0x4               build/g_game.o
worldtop            0x4               build/r_segs.o
netcmds             0x4               build/d_net.o
tmymove             0x4               build/p_map.o
ceilingclip         0x280             build/r_plane.o
dc_translation      0x4               build/r_draw.o
d_episode           0x4               build/g_game.o
buttonlist          0x140             build/p_switch.o
viewwindowx         0x4               build/r_draw.o
anims               0x280             build/p_spec.o
ds_xfrac            0x4               build/r_draw.o
defdemoname         0x4               build/g_game.o
openbottom          0x4               build/p_maputl.o
framecount          0x4               build/r_main.o
messageString       0x4               build/m_menu.o
rejectmatrix        0x4               build/p_setup.o
demobuffer          0x4               build/g_game.o
tmfloorz            0x4               build/p_map.o
saveCharIndex       0x4               build/m_menu.o
leddat              0x4               build/led.o
read_e              0x4               build/m_menu.o
vissprite_p         0x4               build/r_things.o
bestslideline       0x4               build/p_map.o
turbodetected       0x10              build/g_game.o
tmbbox              0x10              build/p_map.o
fuzzcolfunc         0x4               build/r_main.o
demoplayback        0x4               build/g_game.o
test                0x4               build/p_mobj.o

Discarded input sections

 .rodata.cst4   0x00000000        0x4 /usr/bin/../lib/gcc/arm-linux-gnueabihf/4.8/../../../arm-linux-gnueabihf/crt1.o
 .ARM.extab     0x00000000        0x0 /usr/bin/../lib/gcc/arm-linux-gnueabihf/4.8/../../../arm-linux-gnueabihf/crt1.o
 .data          0x00000000        0x4 /usr/bin/../lib/gcc/arm-linux-gnueabihf/4.8/../../../arm-linux-gnueabihf/crt1.o
 .bss           0x00000000        0x0 /usr/bin/../lib/gcc/arm-linux-gnueabihf/4.8/../../../arm-linux-gnueabihf/crt1.o
 .note.GNU-stack
                0x00000000        0x0 /usr/bin/../lib/gcc/arm-linux-gnueabihf/4.8/../../../arm-linux-gnueabihf/crt1.o
 .gnu_debuglink
                0x00000000        0xc /usr/bin/../lib/gcc/arm-linux-gnueabihf/4.8/../../../arm-linux-gnueabihf/crt1.o
 .data          0x00000000        0x0 /usr/bin/../lib/gcc/arm-linux-gnueabihf/4.8/../../../arm-linux-gnueabihf/crti.o
 .bss           0x00000000        0x0 /usr/bin/../lib/gcc/arm-linux-gnueabihf/4.8/../../../arm-linux-gnueabihf/crti.o
 .note.GNU-stack
                0x00000000        0x0 /usr/bin/../lib/gcc/arm-linux-gnueabihf/4.8/../../../arm-linux-gnueabihf/crti.o
 .gnu_debuglink
                0x00000000        0xc /usr/bin/../lib/gcc/arm-linux-gnueabihf/4.8/../../../arm-linux-gnueabihf/crti.o
 .data          0x00000000        0x4 /usr/bin/../lib/gcc/arm-linux-gnueabihf/4.8/crtbegin.o
 .note.GNU-stack
                0x00000000        0x0 /usr/bin/../lib/gcc/arm-linux-gnueabihf/4.8/crtbegin.o
 .data          0x00000000        0x0 build/fnd.o
 .bss           0x00000000        0x0 build/fnd.o
 .bss           0x00000000        0x0 build/lcdtext.o
 .data          0x00000000        0x0 build/led.o
 .data          0x00000000        0x0 build/colorled.o
 .bss           0x00000000        0x0 build/colorled.o
 .data          0x00000000        0x0 build/accelMagGyro.o
 .text          0x00000000        0x4 build/dummy.o
 .data          0x00000000        0x0 build/dummy.o
 .text          0x00000000        0x0 build/doomdef.o
 .data          0x00000000        0x0 build/doomdef.o
 .bss           0x00000000        0x0 build/doomdef.o
 .debug_info    0x00000000       0x22 build/doomdef.o
 .debug_abbrev  0x00000000       0x15 build/doomdef.o
 .debug_aranges
                0x00000000        0x0 build/doomdef.o
 .debug_macinfo
                0x00000000        0x0 build/doomdef.o
 .debug_line    0x00000000       0x2a build/doomdef.o
 .debug_loc     0x00000000        0x0 build/doomdef.o
 .debug_pubnames
                0x00000000       0x12 build/doomdef.o
 .debug_pubtypes
                0x00000000       0x12 build/doomdef.o
 .debug_str     0x00000000       0x8b build/doomdef.o
 .debug_ranges  0x00000000        0x0 build/doomdef.o
 .comment       0x00000000       0x4f build/doomdef.o
 .ARM.attributes
                0x00000000       0x31 build/doomdef.o
 .text          0x00000000        0x0 build/doomstat.o
 .text          0x00000000        0x0 build/dstrings.o
 .bss           0x00000000        0x0 build/dstrings.o
 .data          0x00000000        0x0 build/d_event.o
 .text          0x00000000        0x0 build/d_items.o
 .bss           0x00000000        0x0 build/d_items.o
 .data          0x00000000        0x0 build/d_iwad.o
 .data          0x00000000        0x0 build/d_mode.o
 .bss           0x00000000        0x0 build/d_mode.o
 .data          0x00000000        0x0 build/f_wipe.o
 .data          0x00000000        0x0 build/hu_lib.o
 .bss           0x00000000        0x0 build/hu_lib.o
 .text          0x00000000        0x0 build/info.o
 .bss           0x00000000        0x0 build/info.o
 .text          0x00000000       0x54 build/i_cdmus.o
 .data          0x00000000        0x0 build/i_cdmus.o
 .bss           0x00000000        0x0 build/i_cdmus.o
 .debug_info    0x00000000      0x124 build/i_cdmus.o
 .debug_abbrev  0x00000000       0x83 build/i_cdmus.o
 .debug_aranges
                0x00000000       0x28 build/i_cdmus.o
 .debug_macinfo
                0x00000000        0x0 build/i_cdmus.o
 .debug_line    0x00000000       0x64 build/i_cdmus.o
 .debug_loc     0x00000000       0x39 build/i_cdmus.o
 .debug_pubnames
                0x00000000       0xd0 build/i_cdmus.o
 .debug_pubtypes
                0x00000000       0x1a build/i_cdmus.o
 .debug_str     0x00000000      0x13c build/i_cdmus.o
 .debug_ranges  0x00000000        0x0 build/i_cdmus.o
 .comment       0x00000000       0x4f build/i_cdmus.o
 .ARM.attributes
                0x00000000       0x31 build/i_cdmus.o
 COMMON         0x00000000        0x4 build/i_cdmus.o
 .data          0x00000000        0x0 build/i_endoom.o
 .bss           0x00000000        0x0 build/i_endoom.o
 .text          0x00000000     0x2bfc build/i_scale.o
 .data          0x00000000      0x12c build/i_scale.o
 .bss           0x00000000       0x20 build/i_scale.o
 .debug_info    0x00000000     0x1af2 build/i_scale.o
 .debug_abbrev  0x00000000      0x219 build/i_scale.o
 .debug_aranges
                0x00000000       0x48 build/i_scale.o
 .debug_macinfo
                0x00000000        0x0 build/i_scale.o
 .debug_line    0x00000000      0x932 build/i_scale.o
 .debug_loc     0x00000000     0x1758 build/i_scale.o
 .debug_pubnames
                0x00000000      0x3a7 build/i_scale.o
 .debug_pubtypes
                0x00000000       0x5f build/i_scale.o
 .debug_str     0x00000000      0x575 build/i_scale.o
 .debug_ranges  0x00000000      0x7c8 build/i_scale.o
 .rodata.str1.1
                0x00000000       0x6a build/i_scale.o
 .rodata.str1.16
                0x00000000       0x70 build/i_scale.o
 .comment       0x00000000       0x4f build/i_scale.o
 .ARM.attributes
                0x00000000       0x31 build/i_scale.o
 .data          0x00000000        0x0 build/i_timer.o
 .text          0x00000000      0x2a0 build/memio.o
 .data          0x00000000        0x0 build/memio.o
 .bss           0x00000000        0x0 build/memio.o
 .debug_info    0x00000000      0x347 build/memio.o
 .debug_abbrev  0x00000000       0xe1 build/memio.o
 .debug_aranges
                0x00000000       0x20 build/memio.o
 .debug_macinfo
                0x00000000        0x0 build/memio.o
 .debug_line    0x00000000       0x9e build/memio.o
 .debug_loc     0x00000000      0x260 build/memio.o
 .debug_pubnames
                0x00000000       0x91 build/memio.o
 .debug_pubtypes
                0x00000000       0x8f build/memio.o
 .debug_str     0x00000000      0x235 build/memio.o
 .debug_ranges  0x00000000        0x0 build/memio.o
 .rodata.str1.1
                0x00000000       0x15 build/memio.o
 .rodata.str1.16
                0x00000000       0x20 build/memio.o
 .comment       0x00000000       0x4f build/memio.o
 .ARM.attributes
                0x00000000       0x31 build/memio.o
 .data          0x00000000        0x0 build/m_argv.o
 .bss           0x00000000        0x0 build/m_argv.o
 .data          0x00000000        0x0 build/m_bbox.o
 .bss           0x00000000        0x0 build/m_bbox.o
 .data          0x00000000        0x0 build/m_cheat.o
 .bss           0x00000000        0x0 build/m_cheat.o
 .data          0x00000000        0x0 build/m_fixed.o
 .bss           0x00000000        0x0 build/m_fixed.o
 .data          0x00000000        0x0 build/m_misc.o
 .bss           0x00000000        0x0 build/m_misc.o
 .data          0x00000000        0x0 build/m_random.o
 .data          0x00000000        0x0 build/p_ceilng.o
 .bss           0x00000000        0x0 build/p_ceilng.o
 .data          0x00000000        0x0 build/p_doors.o
 .bss           0x00000000        0x0 build/p_doors.o
 .data          0x00000000        0x0 build/p_floor.o
 .bss           0x00000000        0x0 build/p_floor.o
 .bss           0x00000000        0x0 build/p_inter.o
 .data          0x00000000        0x0 build/p_lights.o
 .bss           0x00000000        0x0 build/p_lights.o
 .data          0x00000000        0x0 build/p_map.o
 .data          0x00000000        0x0 build/p_maputl.o
 .bss           0x00000000        0x0 build/p_maputl.o
 .data          0x00000000        0x0 build/p_mobj.o
 .data          0x00000000        0x0 build/p_plats.o
 .bss           0x00000000        0x0 build/p_plats.o
 .data          0x00000000        0x0 build/p_pspr.o
 .bss           0x00000000        0x0 build/p_pspr.o
 .data          0x00000000        0x0 build/p_saveg.o
 .data          0x00000000        0x0 build/p_setup.o
 .data          0x00000000        0x0 build/p_sight.o
 .bss           0x00000000        0x0 build/p_sight.o
 .bss           0x00000000        0x0 build/p_switch.o
 .data          0x00000000        0x0 build/p_telept.o
 .bss           0x00000000        0x0 build/p_telept.o
 .data          0x00000000        0x0 build/p_tick.o
 .bss           0x00000000        0x0 build/p_tick.o
 .data          0x00000000        0x0 build/p_user.o
 .bss           0x00000000        0x0 build/p_user.o
 .bss           0x00000000        0x0 build/r_bsp.o
 .data          0x00000000        0x0 build/r_data.o
 .bss           0x00000000        0x0 build/r_data.o
 .bss           0x00000000        0x0 build/r_main.o
 .data          0x00000000        0x0 build/r_plane.o
 .bss           0x00000000        0x0 build/r_plane.o
 .data          0x00000000        0x0 build/r_segs.o
 .bss           0x00000000        0x0 build/r_segs.o
 .data          0x00000000        0x0 build/r_sky.o
 .bss           0x00000000        0x0 build/r_sky.o
 .data          0x00000000        0x0 build/r_things.o
 .data          0x00000000        0x0 build/sha1.o
 .bss           0x00000000        0x0 build/sha1.o
 .text          0x00000000        0x0 build/sounds.o
 .bss           0x00000000        0x0 build/sounds.o
 .data          0x00000000        0x0 build/statdump.o
 .data          0x00000000        0x0 build/st_lib.o
 .bss           0x00000000        0x0 build/st_lib.o
 .bss           0x00000000        0x0 build/tables.o
 .data          0x00000000        0x0 build/v_video.o
 .data          0x00000000        0x0 build/w_checksum.o
 .data          0x00000000        0x0 build/w_file.o
 .bss           0x00000000        0x0 build/w_file.o
 .data          0x00000000        0x0 build/w_main.o
 .bss           0x00000000        0x0 build/w_main.o
 .data          0x00000000        0x0 build/w_wad.o
 .data          0x00000000        0x0 build/z_zone.o
 .bss           0x00000000        0x0 build/z_zone.o
 .bss           0x00000000        0x0 build/w_file_stdc.o
 .data          0x00000000        0x0 build/doomgeneric.o
 .data          0x00000000        0x0 build/doomgeneric_xlib.o
 .data          0x00000000        0x0 /usr/lib/arm-linux-gnueabihf/libc_nonshared.a(elf-init.oS)
 .bss           0x00000000        0x0 /usr/lib/arm-linux-gnueabihf/libc_nonshared.a(elf-init.oS)
 .note.GNU-stack
                0x00000000        0x0 /usr/lib/arm-linux-gnueabihf/libc_nonshared.a(elf-init.oS)
 .data          0x00000000        0x0 /usr/bin/../lib/gcc/arm-linux-gnueabihf/4.8/libgcc.a(_udivsi3.o)
 .bss           0x00000000        0x0 /usr/bin/../lib/gcc/arm-linux-gnueabihf/4.8/libgcc.a(_udivsi3.o)
 .note.GNU-stack
                0x00000000        0x0 /usr/bin/../lib/gcc/arm-linux-gnueabihf/4.8/libgcc.a(_udivsi3.o)
 .data          0x00000000        0x0 /usr/bin/../lib/gcc/arm-linux-gnueabihf/4.8/libgcc.a(_divsi3.o)
 .bss           0x00000000        0x0 /usr/bin/../lib/gcc/arm-linux-gnueabihf/4.8/libgcc.a(_divsi3.o)
 .note.GNU-stack
                0x00000000        0x0 /usr/bin/../lib/gcc/arm-linux-gnueabihf/4.8/libgcc.a(_divsi3.o)
 .data          0x00000000        0x0 /usr/bin/../lib/gcc/arm-linux-gnueabihf/4.8/libgcc.a(_umodsi3.o)
 .bss           0x00000000        0x0 /usr/bin/../lib/gcc/arm-linux-gnueabihf/4.8/libgcc.a(_umodsi3.o)
 .note.GNU-stack
                0x00000000        0x0 /usr/bin/../lib/gcc/arm-linux-gnueabihf/4.8/libgcc.a(_umodsi3.o)
 .data          0x00000000        0x0 /usr/bin/../lib/gcc/arm-linux-gnueabihf/4.8/libgcc.a(_modsi3.o)
 .bss           0x00000000        0x0 /usr/bin/../lib/gcc/arm-linux-gnueabihf/4.8/libgcc.a(_modsi3.o)
 .note.GNU-stack
                0x00000000        0x0 /usr/bin/../lib/gcc/arm-linux-gnueabihf/4.8/libgcc.a(_modsi3.o)
 .data          0x00000000        0x0 /usr/bin/../lib/gcc/arm-linux-gnueabihf/4.8/libgcc.a(_aeabi_ldivmod.o)
 .bss           0x00000000        0x0 /usr/bin/../lib/gcc/arm-linux-gnueabihf/4.8/libgcc.a(_aeabi_ldivmod.o)
 .note.GNU-stack
                0x00000000        0x0 /usr/bin/../lib/gcc/arm-linux-gnueabihf/4.8/libgcc.a(_aeabi_ldivmod.o)
 .data          0x00000000        0x0 /usr/bin/../lib/gcc/arm-linux-gnueabihf/4.8/libgcc.a(_dvmd_lnx.o)
 .bss           0x00000000        0x0 /usr/bin/../lib/gcc/arm-linux-gnueabihf/4.8/libgcc.a(_dvmd_lnx.o)
 .note.GNU-stack
                0x00000000        0x0 /usr/bin/../lib/gcc/arm-linux-gnueabihf/4.8/libgcc.a(_dvmd_lnx.o)
 .data          0x00000000        0x0 /usr/bin/../lib/gcc/arm-linux-gnueabihf/4.8/libgcc.a(bpabi.o)
 .bss           0x00000000        0x0 /usr/bin/../lib/gcc/arm-linux-gnueabihf/4.8/libgcc.a(bpabi.o)
 .note.GNU-stack
                0x00000000        0x0 /usr/bin/../lib/gcc/arm-linux-gnueabihf/4.8/libgcc.a(bpabi.o)
 .data          0x00000000        0x0 /usr/bin/../lib/gcc/arm-linux-gnueabihf/4.8/libgcc.a(_divdi3.o)
 .bss           0x00000000        0x0 /usr/bin/../lib/gcc/arm-linux-gnueabihf/4.8/libgcc.a(_divdi3.o)
 .ARM.extab     0x00000000        0x0 /usr/bin/../lib/gcc/arm-linux-gnueabihf/4.8/libgcc.a(_divdi3.o)
 .note.GNU-stack
                0x00000000        0x0 /usr/bin/../lib/gcc/arm-linux-gnueabihf/4.8/libgcc.a(_divdi3.o)
 .data          0x00000000        0x0 /usr/bin/../lib/gcc/arm-linux-gnueabihf/4.8/libgcc.a(_udivdi3.o)
 .bss           0x00000000        0x0 /usr/bin/../lib/gcc/arm-linux-gnueabihf/4.8/libgcc.a(_udivdi3.o)
 .ARM.extab     0x00000000        0x0 /usr/bin/../lib/gcc/arm-linux-gnueabihf/4.8/libgcc.a(_udivdi3.o)
 .note.GNU-stack
                0x00000000        0x0 /usr/bin/../lib/gcc/arm-linux-gnueabihf/4.8/libgcc.a(_udivdi3.o)
 .text          0x00000000        0x0 /usr/bin/../lib/gcc/arm-linux-gnueabihf/4.8/crtend.o
 .data          0x00000000        0x0 /usr/bin/../lib/gcc/arm-linux-gnueabihf/4.8/crtend.o
 .bss           0x00000000        0x0 /usr/bin/../lib/gcc/arm-linux-gnueabihf/4.8/crtend.o
 .note.GNU-stack
                0x00000000        0x0 /usr/bin/../lib/gcc/arm-linux-gnueabihf/4.8/crtend.o
 .text          0x00000000        0x0 /usr/bin/../lib/gcc/arm-linux-gnueabihf/4.8/../../../arm-linux-gnueabihf/crtn.o
 .data          0x00000000        0x0 /usr/bin/../lib/gcc/arm-linux-gnueabihf/4.8/../../../arm-linux-gnueabihf/crtn.o
 .bss           0x00000000        0x0 /usr/bin/../lib/gcc/arm-linux-gnueabihf/4.8/../../../arm-linux-gnueabihf/crtn.o
 .note.GNU-stack
                0x00000000        0x0 /usr/bin/../lib/gcc/arm-linux-gnueabihf/4.8/../../../arm-linux-gnueabihf/crtn.o
 .gnu_debuglink
                0x00000000        0xc /usr/bin/../lib/gcc/arm-linux-gnueabihf/4.8/../../../arm-linux-gnueabihf/crtn.o

Memory Configuration

Name             Origin             Length             Attributes
*default*        0x00000000         0xffffffff

Linker script and memory map

LOAD /usr/bin/../lib/gcc/arm-linux-gnueabihf/4.8/../../../arm-linux-gnueabihf/crt1.o
LOAD /usr/bin/../lib/gcc/arm-linux-gnueabihf/4.8/../../../arm-linux-gnueabihf/crti.o
LOAD /usr/bin/../lib/gcc/arm-linux-gnueabihf/4.8/crtbegin.o
LOAD build/button.o
LOAD build/fnd.o
LOAD build/lcdtext.o
LOAD build/led.o
LOAD build/colorled.o
LOAD build/accelMagGyro.o
LOAD build/dummy.o
LOAD build/am_map.o
LOAD build/doomdef.o
LOAD build/doomstat.o
LOAD build/dstrings.o
LOAD build/d_event.o
LOAD build/d_items.o
LOAD build/d_iwad.o
LOAD build/d_loop.o
LOAD build/d_main.o
LOAD build/d_mode.o
LOAD build/d_net.o
LOAD build/f_finale.o
LOAD build/f_wipe.o
LOAD build/g_game.o
LOAD build/hu_lib.o
LOAD build/hu_stuff.o
LOAD build/info.o
LOAD build/i_cdmus.o
LOAD build/i_endoom.o
LOAD build/i_joystick.o
LOAD build/i_scale.o
LOAD build/i_sound.o
LOAD build/i_system.o
LOAD build/i_timer.o
LOAD build/memio.o
LOAD build/m_argv.o
LOAD build/m_bbox.o
LOAD build/m_cheat.o
LOAD build/m_config.o
LOAD build/m_controls.o
LOAD build/m_fixed.o
LOAD build/m_menu.o
LOAD build/m_misc.o
LOAD build/m_random.o
LOAD build/p_ceilng.o
LOAD build/p_doors.o
LOAD build/p_enemy.o
LOAD build/p_floor.o
LOAD build/p_inter.o
LOAD build/p_lights.o
LOAD build/p_map.o
LOAD build/p_maputl.o
LOAD build/p_mobj.o
LOAD build/p_plats.o
LOAD build/p_pspr.o
LOAD build/p_saveg.o
LOAD build/p_setup.o
LOAD build/p_sight.o
LOAD build/p_spec.o
LOAD build/p_switch.o
LOAD build/p_telept.o
LOAD build/p_tick.o
LOAD build/p_user.o
LOAD build/r_bsp.o
LOAD build/r_data.o
LOAD build/r_draw.o
LOAD build/r_main.o
LOAD build/r_plane.o
LOAD build/r_segs.o
LOAD build/r_sky.o
LOAD build/r_things.o
LOAD build/sha1.o
LOAD build/sounds.o
LOAD build/statdump.o
LOAD build/st_lib.o
LOAD build/st_stuff.o
LOAD build/s_sound.o
LOAD build/tables.o
LOAD build/v_video.o
LOAD build/wi_stuff.o
LOAD build/w_checksum.o
LOAD build/w_file.o
LOAD build/w_main.o
LOAD build/w_wad.o
LOAD build/z_zone.o
LOAD build/w_file_stdc.o
LOAD build/i_input.o
LOAD build/i_video.o
LOAD build/doomgeneric.o
LOAD build/doomgeneric_xlib.o
LOAD /usr/bin/../lib/gcc/arm-linux-gnueabihf/4.8/../../../arm-linux-gnueabihf/libm.so
LOAD /usr/bin/../lib/gcc/arm-linux-gnueabihf/4.8/../../../arm-linux-gnueabihf/libc.so
START GROUP
LOAD /lib/arm-linux-gnueabihf/libc.so.6
LOAD /usr/lib/arm-linux-gnueabihf/libc_nonshared.a
LOAD /lib/arm-linux-gnueabihf/ld-linux-armhf.so.3
END GROUP
LOAD /usr/bin/../lib/gcc/arm-linux-gnueabihf/4.8/../../../arm-linux-gnueabihf/libX11.so
LOAD /usr/bin/../lib/gcc/arm-linux-gnueabihf/4.8/libgcc.a
LOAD /usr/bin/../lib/gcc/arm-linux-gnueabihf/4.8/libgcc_s.so
START GROUP
LOAD /usr/bin/../lib/gcc/arm-linux-gnueabihf/4.8/libgcc_s.so.1
LOAD /usr/bin/../lib/gcc/arm-linux-gnueabihf/4.8/libgcc.a
END GROUP
LOAD /usr/bin/../lib/gcc/arm-linux-gnueabihf/4.8/../../../arm-linux-gnueabihf/libpthread.so
START GROUP
LOAD /lib/arm-linux-gnueabihf/libpthread.so.0
LOAD /usr/lib/arm-linux-gnueabihf/libpthread_nonshared.a
END GROUP
LOAD /usr/bin/../lib/gcc/arm-linux-gnueabihf/4.8/../../../arm-linux-gnueabihf/libc.so
START GROUP
LOAD /lib/arm-linux-gnueabihf/libc.so.6
LOAD /usr/lib/arm-linux-gnueabihf/libc_nonshared.a
LOAD /lib/arm-linux-gnueabihf/ld-linux-armhf.so.3
END GROUP
LOAD /usr/bin/../lib/gcc/arm-linux-gnueabihf/4.8/libgcc.a
LOAD /usr/bin/../lib/gcc/arm-linux-gnueabihf/4.8/libgcc_s.so
START GROUP
LOAD /usr/bin/../lib/gcc/arm-linux-gnueabihf/4.8/libgcc_s.so.1
LOAD /usr/bin/../lib/gcc/arm-linux-gnueabihf/4.8/libgcc.a
END GROUP
LOAD /usr/bin/../lib/gcc/arm-linux-gnueabihf/4.8/crtend.o
LOAD /usr/bin/../lib/gcc/arm-linux-gnueabihf/4.8/../../../arm-linux-gnueabihf/crtn.o
                0x00008000                PROVIDE (__executable_start, 0x8000)
                0x00008154                . = (0x8000 + SIZEOF_HEADERS)

.interp         0x00008154       0x19
 *(.interp)
 .interp        0x00008154       0x19 /usr/bin/../lib/gcc/arm-linux-gnueabihf/4.8/../../../arm-linux-gnueabihf/crt1.o

.note.ABI-tag   0x00008170       0x20
 .note.ABI-tag  0x00008170       0x20 /usr/bin/../lib/gcc/arm-linux-gnueabihf/4.8/../../../arm-linux-gnueabihf/crt1.o

.note.gnu.build-id
                0x00008190       0x24
 *(.note.gnu.build-id)
 .note.gnu.build-id
                0x00008190       0x24 linker stubs

.hash
 *(.hash)

.gnu.hash       0x000081b4      0x2a4
 *(.gnu.hash)
 .gnu.hash      0x000081b4      0x2a4 /usr/bin/../lib/gcc/arm-linux-gnueabihf/4.8/../../../arm-linux-gnueabihf/crt1.o

.dynsym         0x00008458      0x5e0
 *(.dynsym)
 .dynsym        0x00008458      0x5e0 /usr/bin/../lib/gcc/arm-linux-gnueabihf/4.8/../../../arm-linux-gnueabihf/crt1.o

.dynstr         0x00008a38      0x393
 *(.dynstr)
 .dynstr        0x00008a38      0x393 /usr/bin/../lib/gcc/arm-linux-gnueabihf/4.8/../../../arm-linux-gnueabihf/crt1.o

.gnu.version    0x00008dcc       0xbc
 *(.gnu.version)
 .gnu.version   0x00008dcc       0xbc /usr/bin/../lib/gcc/arm-linux-gnueabihf/4.8/../../../arm-linux-gnueabihf/crt1.o

.gnu.version_d  0x00008e88        0x0
 *(.gnu.version_d)
 .gnu.version_d
                0x00000000        0x0 /usr/bin/../lib/gcc/arm-linux-gnueabihf/4.8/../../../arm-linux-gnueabihf/crt1.o

.gnu.version_r  0x00008e88       0x50
 *(.gnu.version_r)
 .gnu.version_r
                0x00008e88       0x50 /usr/bin/../lib/gcc/arm-linux-gnueabihf/4.8/../../../arm-linux-gnueabihf/crt1.o

.rel.dyn        0x00008ed8       0x10
 *(.rel.init)
 *(.rel.text .rel.text.* .rel.gnu.linkonce.t.*)
 *(.rel.fini)
 *(.rel.rodata .rel.rodata.* .rel.gnu.linkonce.r.*)
 *(.rel.data.rel.ro .rel.data.rel.ro.* .rel.gnu.linkonce.d.rel.ro.*)
 *(.rel.data .rel.data.* .rel.gnu.linkonce.d.*)
 *(.rel.tdata .rel.tdata.* .rel.gnu.linkonce.td.*)
 *(.rel.tbss .rel.tbss.* .rel.gnu.linkonce.tb.*)
 *(.rel.ctors)
 *(.rel.dtors)
 *(.rel.got)
 .rel.got       0x00008ed8        0x8 /usr/bin/../lib/gcc/arm-linux-gnueabihf/4.8/../../../arm-linux-gnueabihf/crt1.o
 *(.rel.bss .rel.bss.* .rel.gnu.linkonce.b.*)
 .rel.bss       0x00008ee0        0x8 /usr/bin/../lib/gcc/arm-linux-gnueabihf/4.8/../../../arm-linux-gnueabihf/crt1.o
                0x00008ee8                PROVIDE (__rel_iplt_start, .)
 *(.rel.iplt)
 .rel.iplt      0x00000000        0x0 /usr/bin/../lib/gcc/arm-linux-gnueabihf/4.8/../../../arm-linux-gnueabihf/crt1.o
                0x00008ee8                PROVIDE (__rel_iplt_end, .)

.rela.dyn       0x00008ee8        0x0
 *(.rela.init)
 *(.rela.text .rela.text.* .rela.gnu.linkonce.t.*)
 *(.rela.fini)
 *(.rela.rodata .rela.rodata.* .rela.gnu.linkonce.r.*)
 *(.rela.data .rela.data.* .rela.gnu.linkonce.d.*)
 *(.rela.tdata .rela.tdata.* .rela.gnu.linkonce.td.*)
 *(.rela.tbss .rela.tbss.* .rela.gnu.linkonce.tb.*)
 *(.rela.ctors)
 *(.rela.dtors)
 *(.rela.got)
 *(.rela.bss .rela.bss.* .rela.gnu.linkonce.b.*)
                0x00008ee8                PROVIDE (__rela_iplt_start, .)
 *(.rela.iplt)
                0x00008ee8                PROVIDE (__rela_iplt_end, .)

.rel.plt        0x00008ee8      0x280
 *(.rel.plt)
 .rel.plt       0x00008ee8      0x280 /usr/bin/../lib/gcc/arm-linux-gnueabihf/4.8/../../../arm-linux-gnueabihf/crt1.o

.rela.plt
 *(.rela.plt)

.init           0x00009168        0xc
 *(SORT(.init))
 .init          0x00009168        0x8 /usr/bin/../lib/gcc/arm-linux-gnueabihf/4.8/../../../arm-linux-gnueabihf/crti.o
                0x00009168                _init
 .init          0x00009170        0x4 /usr/bin/../lib/gcc/arm-linux-gnueabihf/4.8/../../../arm-linux-gnueabihf/crtn.o

.plt            0x00009174      0x3d4
 *(.plt)
 .plt           0x00009174      0x3d4 /usr/bin/../lib/gcc/arm-linux-gnueabihf/4.8/../../../arm-linux-gnueabihf/crt1.o
                0x00009188                calloc@@GLIBC_2.4
                0x00009194                strstr@@GLIBC_2.4
                0x000091a0                raise@@GLIBC_2.4
                0x000091ac                strcmp@@GLIBC_2.4
                0x000091b8                strtol@@GLIBC_2.4
                0x000091c4                __aeabi_memcpy@@GLIBC_2.4
                0x000091d0                dprintf@@GLIBC_2.4
                0x000091dc                printf@@GLIBC_2.4
                0x000091e8                __isoc99_fscanf@@GLIBC_2.7
                0x000091f4                fopen@@GLIBC_2.4
                0x00009200                read@@GLIBC_2.4
                0x0000920c                fflush@@GLIBC_2.4
                0x00009218                free@@GLIBC_2.4
                0x00009224                fgets@@GLIBC_2.4
                0x00009230                XPending
                0x0000923c                tolower@@GLIBC_2.4
                0x00009248                time@@GLIBC_2.4
                0x00009254                ftell@@GLIBC_2.4
                0x00009260                sleep@@GLIBC_2.4
                0x0000926c                strdup@@GLIBC_2.4
                0x00009278                XkbSetDetectableAutoRepeat
                0x00009284                realloc@@GLIBC_2.4
                0x00009290                strcasecmp@@GLIBC_2.4
                0x0000929c                perror@@GLIBC_2.4
                0x000092a8                fwrite@@GLIBC_2.4
                0x000092b4                usleep@@GLIBC_2.4
                0x000092c0                __aeabi_memset@@GLIBC_2.4
                0x000092cc                gettimeofday@@GLIBC_2.4
                0x000092d8                fread@@GLIBC_2.4
                0x000092e4                pthread_create@@GLIBC_2.4
                0x000092f0                puts@@GLIBC_2.4
                0x000092fc                malloc@@GLIBC_2.4
                0x00009308                __libc_start_main@@GLIBC_2.4
                0x00009314                system@@GLIBC_2.4
                0x00009320                XOpenDisplay
                0x0000932c                msgrcv@@GLIBC_2.4
                0x00009338                localtime@@GLIBC_2.4
                0x00009344                __ctype_toupper_loc@@GLIBC_2.4
                0x0000935c                open@@GLIBC_2.4
                0x00009368                rename@@GLIBC_2.4
                0x00009374                exit@@GLIBC_2.4
                0x00009380                feof@@GLIBC_2.4
                0x0000938c                strlen@@GLIBC_2.4
                0x00009398                fprintf@@GLIBC_2.4
                0x000093a4                XNextEvent
                0x000093b0                __errno_location@@GLIBC_2.4
                0x000093bc                strncasecmp@@GLIBC_2.4
                0x000093c8                snprintf@@GLIBC_2.4
                0x000093d4                __isoc99_sscanf@@GLIBC_2.7
                0x000093e0                mkdir@@GLIBC_2.4
                0x000093ec                XChangeProperty
                0x000093f8                putchar@@GLIBC_2.4
                0x00009404                strncpy@@GLIBC_2.4
                0x00009410                XSelectInput
                0x0000941c                write@@GLIBC_2.4
                0x00009428                memchr@@GLIBC_2.4
                0x00009434                fclose@@GLIBC_2.4
                0x00009440                XCreateGC
                0x0000944c                XCreateSimpleWindow
                0x00009458                XSetForeground
                0x00009464                toupper@@GLIBC_2.4
                0x00009470                strrchr@@GLIBC_2.4
                0x0000947c                vfprintf@@GLIBC_2.4
                0x00009488                pthread_join@@GLIBC_2.4
                0x00009494                XPutImage
                0x000094a0                XMapWindow
                0x000094ac                sprintf@@GLIBC_2.4
                0x000094b8                remove@@GLIBC_2.4
                0x000094c4                vsnprintf@@GLIBC_2.4
                0x000094d0                atoi@@GLIBC_2.4
                0x000094dc                msgget@@GLIBC_2.4
                0x000094e8                atof@@GLIBC_2.4
                0x000094f4                fseek@@GLIBC_2.4
                0x00009500                XCreateImage
                0x0000950c                msgsnd@@GLIBC_2.4
                0x00009518                strncmp@@GLIBC_2.4
                0x00009524                abort@@GLIBC_2.4
                0x00009530                XkbKeycodeToKeysym
                0x0000953c                close@@GLIBC_2.4

.iplt           0x00009548        0x0
 *(.iplt)
 .iplt          0x00000000        0x0 /usr/bin/../lib/gcc/arm-linux-gnueabihf/4.8/../../../arm-linux-gnueabihf/crt1.o

.text           0x00009548    0x31008
 *(.text.unlikely .text.*_unlikely .text.unlikely.*)
 *(.text.exit .text.exit.*)
 *(.text.startup .text.startup.*)
 *(.text.hot .text.hot.*)
 *(.text .stub .text.* .gnu.linkonce.t.*)
 .text          0x00009548       0x30 /usr/bin/../lib/gcc/arm-linux-gnueabihf/4.8/../../../arm-linux-gnueabihf/crt1.o
                0x00009548                _start
 .text          0x00009578       0x24 /usr/bin/../lib/gcc/arm-linux-gnueabihf/4.8/../../../arm-linux-gnueabihf/crti.o
 .text          0x0000959c       0x88 /usr/bin/../lib/gcc/arm-linux-gnueabihf/4.8/crtbegin.o
 .text          0x00009624      0x284 build/button.o
                0x00009624                buttonInit
                0x000096b4                probeButtonPath
                0x000097fc                buttonThFunc
                0x00009878                buttonExit
 .text          0x000098a8      0x53c build/fnd.o
                0x000098a8                fnd
                0x00009968                fndDisp
                0x00009b14                fndDisp_ch
                0x00009bac                fndDisp_canoff
                0x00009d5c                fndOff
 .text          0x00009de4      0x1ac build/lcdtext.o
                0x00009de4                txtlcd_Init
                0x00009e4c                lcdtextwrite
                0x00009f38                txtlcd_off
 .text          0x00009f90      0x17c build/led.o
                0x00009f90                ledOnOff
                0x00009fd8                ledLibInit
                0x0000a010                ledStatus
                0x0000a020                ledLibExit
                0x0000a06c                ledRead
 .text          0x0000a10c      0x3e8 build/colorled.o
                0x0000a10c                pwmActiveAll
                0x0000a19c                pwmInactiveAll
                0x0000a22c                pwmSetDuty
                0x0000a28c                pwmSetPeriod
                0x0000a2ec                pwmSetPercent
                0x0000a344                pwmStartAll
                0x0000a3d4                pwmLedInit
 .text          0x0000a4f4      0x1a4 build/accelMagGyro.o
                0x0000a4f4                getAccel
                0x0000a580                getMagnet
                0x0000a60c                getGyro
 .text          0x0000a698     0x1ddc build/am_map.o
                0x0000a698                AM_getIslope
                0x0000a710                AM_activateNewScale
                0x0000a7ac                AM_saveScaleAndLoc
                0x0000a7d8                AM_restoreScaleAndLoc
                0x0000a880                AM_addMark
                0x0000a8e0                AM_findMinMaxBoundaries
                0x0000aa04                AM_changeWindowLoc
                0x0000aab8                AM_initVariables
                0x0000ac08                AM_loadPics
                0x0000ac68                AM_unloadPics
                0x0000acb4                AM_clearMarks
                0x0000ace8                AM_LevelInit
                0x0000ad78                AM_Stop
                0x0000adbc                AM_Start
                0x0000ae68                AM_minOutWindowScale
                0x0000aea4                AM_maxOutWindowScale
                0x0000aee0                AM_Responder
                0x0000b43c                AM_changeWindowScale
                0x0000b4a8                AM_doFollowPlayer
                0x0000b57c                AM_updateLightLev
                0x0000b5e4                AM_Ticker
                0x0000b64c                AM_clearFB
                0x0000b68c                AM_clipMline
                0x0000ba78                AM_drawFline
                0x0000bc04                AM_drawMline
                0x0000bc3c                AM_drawGrid
                0x0000bd54                AM_drawWalls
                0x0000beb8                AM_rotate
                0x0000bf48                AM_drawLineCharacter
                0x0000c0a8                AM_drawPlayers
                0x0000c1f4                AM_drawThings
                0x0000c2a0                AM_drawMarks
                0x0000c36c                AM_drawCrosshair
                0x0000c3a0                AM_Drawer
 .text          0x0000c474       0x90 build/d_event.o
                0x0000c474                D_PostEvent
                0x0000c4c4                D_PopEvent
 .text          0x0000c504      0x50c build/d_iwad.o
                0x0000c504                D_FindWADByName
                0x0000c674                D_TryFindWADByName
                0x0000c698                D_FindIWAD
                0x0000c8bc                D_FindAllIWADs
                0x0000c930                D_SaveGameIWADName
                0x0000c970                D_SuggestIWADName
                0x0000c9bc                D_SuggestGameName
 .text          0x0000ca10      0x800 build/d_loop.o
                0x0000ca10                NetUpdate
                0x0000cc38                D_ReceiveTic
                0x0000cd10                D_StartGameLoop
                0x0000cd84                D_StartNetGame
                0x0000cdd4                D_InitNetGame
                0x0000ce10                D_QuitNetGame
                0x0000ce14                TryRunTics
                0x0000d200                D_RegisterLoopCallbacks
 .text          0x0000d210     0x196c build/d_main.o
                0x0000d210                D_ProcessEvents
                0x0000d268                D_Display
                0x0000d6b0                D_PageDrawer
                0x0000d6e0                D_BindVariables
                0x0000d850                D_GrabMouseCallback
                0x0000d8c8                doomgeneric_Tick
                0x0000d910                D_DoomLoop
                0x0000da00                D_PageTicker
                0x0000da2c                D_AdvanceDemo
                0x0000da40                D_DoAdvanceDemo
                0x0000dca4                D_StartTitle
                0x0000dcd8                D_IdentifyVersion
                0x0000deb0                D_SetGameDescription
                0x0000dfd4                PrintDehackedBanners
                0x0000dfd8                PrintGameVersion
                0x0000e034                D_DoomMain
 .text          0x0000eb7c      0x1e4 build/d_mode.o
                0x0000eb7c                D_ValidGameMode
                0x0000ebc4                D_ValidEpisodeMap
                0x0000ec7c                D_GetNumEpisodes
                0x0000ecc0                D_ValidGameVersion
                0x0000ed14                D_IsEpisodeMap
                0x0000ed40                D_GameMissionString
 .text          0x0000ed60      0x4b4 build/d_net.o
                0x0000ed60                D_ConnectNetGame
                0x0000ee74                D_CheckNetGame
 .text          0x0000f214      0xeb4 build/f_finale.o
                0x0000f214                F_StartFinale
                0x0000f368                F_Responder
                0x0000f398                F_CastResponder
                0x0000f46c                F_Ticker
                0x0000f594                F_StartCast
                0x0000f658                F_CastTicker
                0x0000fb00                F_TextWrite
                0x0000fc4c                F_CastPrint
                0x0000fd14                F_CastDrawer
                0x0000fde0                F_DrawPatchCol
                0x0000fe70                F_BunnyScroll
                0x0000fffc                F_Drawer
 .text          0x000100c8      0x554 build/f_wipe.o
                0x000100c8                wipe_shittyColMajorXform
                0x00010170                wipe_initColorXForm
                0x00010194                wipe_doColorXForm
                0x00010224                wipe_exitColorXForm
                0x0001022c                wipe_initMelt
                0x00010328                wipe_doMelt
                0x00010490                wipe_exitMelt
                0x000104c8                wipe_StartScreen
                0x000104f8                wipe_EndScreen
                0x0001055c                wipe_ScreenWipe
 .text          0x0001061c     0x30e0 build/g_game.o
                0x0001061c                G_CmdChecksum
                0x00010640                G_BuildTiccmd
                0x00010f48                G_DoLoadLevel
                0x00011198                G_Responder
                0x000115b8                G_Ticker
                0x00011a7c                G_DoReborn
                0x00011b70                G_DoNewGame
                0x00011c30                G_DoLoadGame
                0x00011d24                G_DoSaveGame
                0x00011e94                G_DoPlayDemo
                0x00012214                G_DoCompleted
                0x000125e0                G_DoWorldDone
                0x00012640                G_ReadDemoTiccmd
                0x000126dc                G_WriteDemoTiccmd
                0x00012850                G_InitPlayer
                0x00012860                G_PlayerReborn
                0x00012908                G_PlayerFinishLevel
                0x00012958                G_CheckSpot
                0x00012c04                G_DeathMatchSpawnPlayer
                0x00012cc4                G_ScreenShot
                0x00012cd8                G_ExitLevel
                0x00012cfc                G_SecretExitLevel
                0x00012d58                G_WorldDone
                0x00012e00                G_LoadGame
                0x00012e30                G_InitNew
                0x0001310c                G_SaveGame
                0x00013140                G_DeferedInitNew
                0x0001317c                G_CheckDemoStatus
                0x00013344                G_RecordDemo
                0x0001341c                G_VanillaVersionCode
                0x0001348c                G_BeginRecording
                0x00013674                G_DeferedPlayDemo
                0x00013694                G_TimeDemo
 .text          0x000136fc      0x78c build/hu_lib.o
                0x000136fc                HUlib_init
                0x00013700                HUlib_clearTextLine
                0x00013718                HUlib_initTextLine
                0x00013738                HUlib_addCharToTextLine
                0x00013778                HUlib_delCharFromTextLine
                0x000137b0                HUlib_drawTextLine
                0x00013894                HUlib_eraseTextLine
                0x00013990                HUlib_initSText
                0x00013a28                HUlib_addLineToSText
                0x00013a88                HUlib_addMessageToSText
                0x00013b68                HUlib_drawSText
                0x00013bd4                HUlib_eraseSText
                0x00013c40                HUlib_initIText
                0x00013c74                HUlib_delCharFromIText
                0x00013ca8                HUlib_eraseLineFromIText
                0x00013cfc                HUlib_resetIText
                0x00013d18                HUlib_addPrefixToIText
                0x00013d74                HUlib_keyInIText
                0x00013e1c                HUlib_drawIText
                0x00013e3c                HUlib_eraseIText
 .text          0x00013e88      0x9b4 build/hu_stuff.o
                0x00013e88                HU_Init
                0x00013ee4                HU_Stop
                0x00013ef8                HU_Start
                0x00014150                HU_Drawer
                0x0001419c                HU_Erase
                0x000141d0                HU_Ticker
                0x000143b8                HU_queueChatChar
                0x000143f8                HU_dequeueChatChar
                0x0001442c                HU_Responder
 .text          0x0001483c        0x4 build/i_endoom.o
                0x0001483c                I_Endoom
 .text          0x00014840       0xf4 build/i_joystick.o
                0x00014840                I_ShutdownJoystick
                0x00014844                I_InitJoystick
                0x00014848                I_UpdateJoystick
                0x0001484c                I_BindJoystickVariables
 .text          0x00014934      0x160 build/i_sound.o
                0x00014934                I_InitSound
                0x00014964                I_ShutdownSound
                0x00014968                I_GetSfxLumpNum
                0x00014970                I_UpdateSound
                0x00014974                I_UpdateSoundParams
                0x00014978                I_StartSound
                0x00014980                I_StopSound
                0x00014984                I_SoundIsPlaying
                0x0001498c                I_PrecacheSounds
                0x00014990                I_InitMusic
                0x00014994                I_ShutdownMusic
                0x00014998                I_SetMusicVolume
                0x0001499c                I_PauseSong
                0x000149a0                I_ResumeSong
                0x000149a4                I_RegisterSong
                0x000149ac                I_UnRegisterSong
                0x000149b0                I_PlaySong
                0x000149b4                I_StopSong
                0x000149b8                I_MusicIsPlaying
                0x000149c0                I_BindSoundVariables
 .text          0x00014a94      0x5c0 build/i_system.o
                0x00014a94                I_AtExit
                0x00014acc                I_Tactile
                0x00014ad0                I_ZoneBase
                0x00014b74                I_PrintBanner
                0x00014bb0                I_PrintDivider
                0x00014be0                I_PrintStartupBanner
                0x00014c18                I_ConsoleStdout
                0x00014c20                I_Quit
                0x00014c58                I_Error
                0x00014e70                I_GetMemoryValue
 .text          0x00015054       0x98 build/i_timer.o
                0x00015054                I_GetTicks
                0x00015064                I_GetTime
                0x000150a8                I_GetTimeMS
                0x000150d4                I_Sleep
                0x000150e4                I_WaitVBL
                0x000150e8                I_InitTimer
 .text          0x000150ec       0xe0 build/m_argv.o
                0x000150ec                M_CheckParmWithArgs
                0x0001515c                M_ParmExists
                0x00015178                M_CheckParm
                0x0001518c                M_FindResponseFile
                0x00015190                M_GetExecutableName
 .text          0x000151cc       0x58 build/m_bbox.o
                0x000151cc                M_ClearBox
                0x000151e4                M_AddToBox
 .text          0x00015224       0xf4 build/m_cheat.o
                0x00015224                cht_CheckCheat
                0x000152f8                cht_GetParam
 .text          0x00015318      0x488 build/m_config.o
                0x00015318                M_SetConfigFilenames
                0x00015328                M_SaveDefaults
                0x0001532c                M_SaveDefaultsAlternate
                0x00015330                M_LoadDefaults
                0x00015428                M_BindVariable
                0x000154a4                M_SetVariable
                0x00015570                M_GetIntVariable
                0x000155a8                M_GetStrVariable
                0x000155e0                M_GetFloatVariable
                0x00015618                M_SetConfigDir
                0x00015684                M_GetSaveGameDir
 .text          0x000157a0      0xa04 build/m_controls.o
                0x000157a0                M_BindBaseControls
                0x000159c8                M_BindHereticControls
                0x00015a88                M_BindHexenControls
                0x00015b70                M_BindStrifeControls
                0x00015d04                M_BindWeaponControls
                0x00015e28                M_BindMapControls
                0x00015f24                M_BindMenuControls
                0x00016124                M_BindChatControls
                0x000161a0                M_ApplyPlatformDefaults
 .text          0x000161a4       0x70 build/m_fixed.o
                0x000161a4                FixedMul
                0x000161b4                FixedDiv
 .text          0x00016214     0x297c build/m_menu.o
                0x00016214                M_NewGame
                0x00016300                M_Options
                0x00016328                M_LoadGame
                0x000163d0                M_SaveGame
                0x0001648c                M_ReadThis
                0x000164b4                M_QuitDOOM
                0x00016584                M_DrawMainMenu
                0x000165b0                M_Episode
                0x000166b4                M_DrawEpisode
                0x000166e0                M_ChooseSkill
                0x00016778                M_DrawNewGame
                0x000167c4                M_EndGame
                0x00016898                M_ChangeMessages
                0x000168f8                M_ChangeDetail
                0x0001696c                M_SizeDisplay
                0x000169f8                M_ChangeSensitivity
                0x00016a40                M_Sound
                0x00016a68                M_DrawOptions
                0x00016b5c                M_ReadThis2
                0x00016bcc                M_DrawReadThis1
                0x00016cbc                M_FinishReadThis
                0x00016ce4                M_DrawReadThis2
                0x00016d20                M_SfxVol
                0x00016d88                M_MusicVol
                0x00016df0                M_DrawSound
                0x00016e74                M_LoadSelect
                0x00016eb8                M_DrawLoad
                0x00016f34                M_SaveSelect
                0x00016fbc                M_DrawSave
                0x00017084                M_ReadSaveStrings
                0x0001713c                M_DrawSaveLoadBorder
                0x000171c8                M_WriteText
                0x00017260                M_ClearMenus
                0x00017274                M_StartMessage
                0x000172cc                M_SetupNextMenu
                0x000172ec                M_StringWidth
                0x0001737c                M_DoSave
                0x000173d0                M_QuickSaveResponse
                0x0001743c                M_QuickSave
                0x00017588                M_StartControlPanel
                0x000175cc                M_QuickLoadResponse
                0x00017608                M_QuickLoad
                0x00017754                M_DrawThermo
                0x00017824                M_VerifyNightmare
                0x00017870                M_EndGameResponse
                0x000178c0                M_QuitResponse
                0x00017940                M_DrawEmptyCell
                0x0001797c                M_DrawSelCell
                0x000179b8                M_StopMessage
                0x000179e4                M_StringHeight
                0x00017a58                M_Responder
                0x000187cc                M_Drawer
                0x00018a24                M_Ticker
                0x00018a64                M_Init
 .text          0x00018b90      0x7dc build/m_misc.o
                0x00018b90                M_MakeDirectory
                0x00018ba8                M_FileExists
                0x00018be8                M_FileLength
                0x00018c38                M_WriteFile
                0x00018c9c                M_ReadFile
                0x00018d2c                M_TempFile
                0x00018d54                M_StringJoin
                0x00018e58                M_StrToInt
                0x00018eec                M_ExtractFileBase
                0x00018f94                M_ForceUppercase
                0x00018fd8                M_StrCaseStr
                0x0001904c                M_StringDuplicate
                0x00019088                M_StringReplace
                0x000191a8                M_StringCopy
                0x00019200                M_StringConcat
                0x00019240                M_StringStartsWith
                0x00019298                M_StringEndsWith
                0x000192f4                M_vsnprintf
                0x0001933c                M_snprintf
 .text          0x0001936c       0x70 build/m_random.o
                0x0001936c                P_Random
                0x00019394                M_Random
                0x000193bc                M_ClearRandom
 .text          0x000193dc      0x480 build/p_ceilng.o
                0x000193dc                T_MoveCeiling
                0x00019580                P_RemoveActiveCeiling
                0x000195d4                EV_DoCeiling
                0x0001976c                P_ActivateInStasisCeiling
                0x000197c4                P_AddActiveCeiling
                0x000197f4                EV_CeilingCrushStop
 .text          0x0001985c      0x870 build/p_doors.o
                0x0001985c                T_VerticalDoor
                0x00019a74                EV_DoLockedDoor
                0x00019b5c                EV_DoDoor
                0x00019d24                EV_VerticalDoor
                0x00019fdc                P_SpawnDoorCloseIn30
                0x0001a044                P_SpawnDoorRaiseIn5Mins
 .text          0x0001a0cc     0x25b8 build/p_enemy.o
                0x0001a0cc                P_RecursiveSound
                0x0001a1d0                P_NoiseAlert
                0x0001a20c                P_CheckMeleeRange
                0x0001a280                P_CheckMissileRange
                0x0001a390                P_Move
                0x0001a4e4                P_TryWalk
                0x0001a520                P_NewChaseDir
                0x0001a714                P_LookForPlayers
                0x0001a818                A_KeenDie
                0x0001a8a8                A_Fall
                0x0001a8b8                A_Look
                0x0001a9b8                A_Chase
                0x0001ac1c                A_FaceTarget
                0x0001ac88                A_PosAttack
                0x0001ad2c                A_SPosAttack
                0x0001addc                A_CPosAttack
                0x0001ae80                A_CPosRefire
                0x0001aee0                A_SpidRefire
                0x0001af40                A_BspiAttack
                0x0001af7c                A_TroopAttack
                0x0001b004                A_SargAttack
                0x0001b07c                A_HeadAttack
                0x0001b104                A_CyberAttack
                0x0001b140                A_BruisAttack
                0x0001b1c8                A_SkelMissile
                0x0001b244                A_Tracer
                0x0001b3e4                A_SkelWhoosh
                0x0001b41c                A_SkelFist
                0x0001b49c                PIT_VileCheck
                0x0001b56c                A_VileChase
                0x0001b700                A_VileStart
                0x0001b714                A_StartFire
                0x0001b73c                A_Fire
                0x0001b7dc                A_FireCrackle
                0x0001b804                A_VileTarget
                0x0001b85c                A_VileAttack
                0x0001b938                A_FatRaise
                0x0001b960                A_FatAttack1
                0x0001ba04                A_FatAttack2
                0x0001baa8                A_FatAttack3
                0x0001bb88                A_SkullAttack
                0x0001bc68                A_PainShootSkull
                0x0001bd98                A_PainAttack
                0x0001bdd0                A_PainDie
                0x0001be24                A_Scream
                0x0001bebc                A_XScream
                0x0001bed0                A_Pain
                0x0001bef0                A_Explode
                0x0001bf08                A_BossDeath
                0x0001c1ac                A_Hoof
                0x0001c1d4                A_Metal
                0x0001c1fc                A_BabyMetal
                0x0001c224                A_OpenShotgun2
                0x0001c23c                A_LoadShotgun2
                0x0001c254                A_CloseShotgun2
                0x0001c280                A_BrainAwake
                0x0001c30c                A_BrainPain
                0x0001c324                A_BrainScream
                0x0001c3c4                A_BrainExplode
                0x0001c450                A_BrainDie
                0x0001c460                A_BrainSpit
                0x0001c520                A_SpawnSound
                0x0001c548                A_SpawnFly
                0x0001c64c                A_PlayerScream
 .text          0x0001c684      0x894 build/p_floor.o
                0x0001c684                T_MovePlane
                0x0001c7f0                T_MoveFloor
                0x0001c8bc                EV_DoFloor
                0x0001cd1c                EV_BuildStairs
 .text          0x0001cf18     0x1100 build/p_inter.o
                0x0001cf18                P_GiveAmmo
                0x0001d074                P_GiveWeapon
                0x0001d1a4                P_GiveBody
                0x0001d1d8                P_GiveArmor
                0x0001d200                P_GiveCard
                0x0001d224                P_GivePower
                0x0001d300                P_TouchSpecialThing
                0x0001daa4                P_KillMobj
                0x0001dcd4                P_DamageMobj
 .text          0x0001e018      0x520 build/p_lights.o
                0x0001e018                T_FireFlicker
                0x0001e074                P_SpawnFireFlicker
                0x0001e0d4                T_LightFlash
                0x0001e13c                P_SpawnLightFlash
                0x0001e1b0                T_StrobeFlash
                0x0001e1f4                P_SpawnStrobeFlash
                0x0001e290                EV_StartLightStrobing
                0x0001e2f8                EV_TurnTagLightsOff
                0x0001e39c                EV_LightTurnOn
                0x0001e450                T_Glow
                0x0001e4d0                P_SpawnGlowingLight
 .text          0x0001e538     0x1b58 build/p_map.o
                0x0001e538                PIT_StompThing
                0x0001e5f4                P_TeleportMove
                0x0001e7dc                PIT_CheckLine
                0x0001ea1c                PIT_CheckThing
                0x0001ec08                P_CheckPosition
                0x0001ee44                P_TryMove
                0x0001eff8                P_ThingHeightClip
                0x0001f07c                P_HitSlideLine
                0x0001f188                PTR_SlideTraverse
                0x0001f29c                P_SlideMove
                0x0001f4ec                PTR_AimTraverse
                0x0001f6f0                PTR_ShootTraverse
                0x0001faa0                P_AimLineAttack
                0x0001fb98                P_LineAttack
                0x0001fc5c                PTR_UseTraverse
                0x0001fce4                P_UseLines
                0x0001fd5c                PIT_RadiusAttack
                0x0001fe18                P_RadiusAttack
                0x0001fee4                PIT_ChangeSector
                0x0001fff8                P_ChangeSector
 .text          0x00020090      0xdf0 build/p_maputl.o
                0x00020090                P_AproxDistance
                0x000200b8                P_PointOnLineSide
                0x0002015c                P_BoxOnLineSide
                0x00020260                P_PointOnDivlineSide
                0x00020338                P_MakeDivline
                0x00020360                P_InterceptVector
                0x000203ec                P_LineOpening
                0x00020470                P_UnsetThingPosition
                0x00020558                P_SetThingPosition
                0x0002065c                P_BlockLinesIterator
                0x00020740                P_BlockThingsIterator
                0x000207c8                PIT_AddLineIntercepts
                0x00020970                PIT_AddThingIntercepts
                0x00020a78                P_TraverseIntercepts
                0x00020b34                P_PathTraverse
 .text          0x00020e80     0x13d8 build/p_mobj.o
                0x00020e80                P_SetMobjState
                0x00020f0c                P_RemoveMobj
                0x00020fcc                P_ExplodeMissile
                0x00021054                P_XYMovement
                0x00021320                P_ZMovement
                0x00021528                P_NightmareRespawn
                0x00021648                P_SpawnMobj
                0x00021788                P_MobjThinker
                0x00021888                P_RespawnSpecials
                0x000219fc                P_SpawnPlayer
                0x00021b80                P_SpawnMapThing
                0x00021e40                P_SpawnPuff
                0x00021ec4                P_SpawnBlood
                0x00021f60                P_CheckMissileSpawn
                0x00021fdc                P_SubstNullMobj
                0x00022004                P_SpawnMissile
                0x0002212c                P_SpawnPlayerMissile
 .text          0x00022258      0x534 build/p_plats.o
                0x00022258                T_PlatRaise
                0x000223dc                P_RemoveActivePlat
                0x0002243c                EV_DoPlat
                0x000226a0                P_ActivateInStasis
                0x000226f4                P_AddActivePlat
                0x00022738                EV_StopPlat
 .text          0x0002278c      0xedc build/p_pspr.o
                0x0002278c                P_SetPsprite
                0x00022844                P_CalcSwing
                0x000228b8                P_BringUpWeapon
                0x00022928                P_CheckAmmo
                0x00022ab0                P_FireWeapon
                0x00022b10                P_DropWeapon
                0x00022b3c                A_WeaponReady
                0x00022c98                A_ReFire
                0x00022ce8                A_CheckReload
                0x00022cf8                A_Lower
                0x00022d58                A_Raise
                0x00022da0                A_GunFlash
                0x00022de8                A_Punch
                0x00022ec0                A_Saw
                0x00023010                A_FireMissile
                0x00023050                A_FireBFG
                0x00023090                A_FirePlasma
                0x000230fc                P_BulletSlope
                0x00023170                P_GunShot
                0x000231f0                A_FirePistol
                0x00023284                A_FireShotgun
                0x00023310                A_FireShotgun2
                0x00023410                A_FireCGun
                0x000234f0                A_Light0
                0x000234fc                A_Light1
                0x00023508                A_Light2
                0x00023514                A_BFGSpray
                0x000235bc                A_BFGsound
                0x000235d4                P_SetupPsprites
                0x00023604                P_MovePsprites
 .text          0x00023668     0x1bf0 build/p_saveg.o
                0x00023668                P_TempSaveGameFile
                0x000236b0                P_SaveGameFile
                0x00023738                P_WriteSaveGameHeader
                0x000238c4                P_ReadSaveGameHeader
                0x00023a48                P_ReadSaveGameEOF
                0x00023a68                P_WriteSaveGameEOF
                0x00023a7c                P_ArchivePlayers
                0x00023dac                P_UnArchivePlayers
                0x000240f8                P_ArchiveWorld
                0x000242e4                P_UnArchiveWorld
                0x000244e4                P_ArchiveThinkers
                0x00024720                P_UnArchiveThinkers
                0x000249d0                P_ArchiveSpecials
                0x00024d58                P_UnArchiveSpecials
 .text          0x00025258     0x1268 build/p_setup.o
                0x00025258                P_LoadVertexes
                0x00025300                GetSectorAtNullAddress
                0x00025360                P_LoadSegs
                0x0002554c                P_LoadSubsectors
                0x0002560c                P_LoadSectors
                0x00025728                P_LoadNodes
                0x00025894                P_LoadThings
                0x000259a0                P_LoadLineDefs
                0x00025c04                P_LoadSideDefs
                0x00025d24                P_LoadBlockMap
                0x00025de8                P_GroupLines
                0x00026128                P_SetupLevel
                0x000264a0                P_Init
 .text          0x000264c0      0x5f0 build/p_sight.o
                0x000264c0                P_DivlineSide
                0x00026578                P_InterceptVector2
                0x00026604                P_CrossSubsector
                0x00026868                P_CrossBSPNode
                0x00026938                P_CheckSight
 .text          0x00026ab0     0x15e8 build/p_spec.o
                0x00026ab0                P_InitPicAnims
                0x00026bb8                getSide
                0x00026bf4                getSector
                0x00026c34                twoSided
                0x00026c5c                getNextSector
                0x00026c80                P_FindLowestFloorSurrounding
                0x00026ce0                P_FindHighestFloorSurrounding
                0x00026d50                P_FindNextHighestFloor
                0x00026e30                P_FindLowestCeilingSurrounding
                0x00026e94                P_FindHighestCeilingSurrounding
                0x00026ef8                P_FindSectorFromLineTag
                0x00026f4c                P_FindMinSurroundingLight
                0x00026fa8                P_CrossSpecialLine
                0x000276a4                P_ShootSpecialLine
                0x00027740                P_PlayerInSpecialSector
                0x000278cc                P_UpdateSpecials
                0x00027afc                EV_DoDonut
                0x00027e00                P_SpawnSpecials
 .text          0x00028098      0x884 build/p_switch.o
                0x00028098                P_InitSwitchList
                0x00028148                P_StartButton
                0x000281e4                P_ChangeSwitchTexture
                0x00028364                P_UseSpecialLine
 .text          0x0002891c      0x1e0 build/p_telept.o
                0x0002891c                EV_Teleport
 .text          0x00028afc      0x180 build/p_tick.o
                0x00028afc                P_InitThinkers
                0x00028b10                P_AddThinker
                0x00028b30                P_RemoveThinker
                0x00028b3c                P_AllocateThinker
                0x00028b40                P_RunThinkers
                0x00028ba4                P_Ticker
 .text          0x00028c7c      0x644 build/p_user.o
                0x00028c7c                P_Thrust
                0x00028cf0                P_CalcHeight
                0x00028e40                P_MovePlayer
                0x00028f18                P_DeathThink
                0x00029018                P_PlayerThink
 .text          0x000292c0      0x76c build/r_bsp.o
                0x000292c0                R_ClearDrawSegs
                0x000292d8                R_ClipSolidWallSegment
                0x00029470                R_ClipPassWallSegment
                0x000294f8                R_ClearClipSegs
                0x0002953c                R_AddLine
                0x000296c8                R_CheckBBox
                0x00029858                R_Subsector
                0x00029990                R_RenderBSPNode
 .text          0x00029a2c     0x12d8 build/r_data.o
                0x00029a2c                R_DrawColumnInCache
                0x00029aa4                R_GenerateComposite
                0x00029c4c                R_GenerateLookup
                0x00029eb8                R_GetColumn
                0x00029f54                R_InitTextures
                0x0002a594                R_InitFlats
                0x0002a638                R_InitSpriteLumps
                0x0002a77c                R_InitColormaps
                0x0002a7a8                R_InitData
                0x0002a7f8                R_FlatNumForName
                0x0002a888                R_CheckTextureNumForName
                0x0002a90c                R_TextureNumForName
                0x0002a940                R_PrecacheLevel
 .text          0x0002ad04      0xe98 build/r_draw.o
                0x0002ad04                R_DrawColumn
                0x0002ae08                R_DrawColumnLow
                0x0002af20                R_DrawFuzzColumn
                0x0002b03c                R_DrawFuzzColumnLow
                0x0002b180                R_DrawTranslatedColumn
                0x0002b28c                R_DrawTranslatedColumnLow
                0x0002b3c8                R_InitTranslationTables
                0x0002b46c                R_DrawSpan
                0x0002b578                R_DrawSpanLow
                0x0002b6a4                R_InitBuffer
                0x0002b73c                R_FillBackScreen
                0x0002ba48                R_VideoErase
                0x0002ba84                R_DrawViewBorder
 .text          0x0002bb9c      0xd04 build/r_main.o
                0x0002bb9c                R_AddPointToBox
                0x0002bbd0                R_PointOnSide
                0x0002bca8                R_PointOnSegSide
                0x0002bd78                R_PointToAngle
                0x0002becc                R_PointToAngle2
                0x0002befc                R_PointToDist
                0x0002bf98                R_InitPointToAngle
                0x0002bf9c                R_ScaleFromGlobalAngle
                0x0002c04c                R_InitTables
                0x0002c050                R_InitTextureMapping
                0x0002c1c0                R_InitLightTables
                0x0002c248                R_SetViewSize
                0x0002c278                R_ExecuteSetViewSize
                0x0002c5d0                R_Init
                0x0002c670                R_PointInSubsector
                0x0002c708                R_SetupFrame
                0x0002c854                R_RenderPlayerView
 .text          0x0002c8a0      0x9b8 build/r_plane.o
                0x0002c8a0                R_InitPlanes
                0x0002c8a4                R_MapPlane
                0x0002cb0c                R_ClearPlanes
                0x0002cc1c                R_FindPlane
                0x0002ccfc                R_CheckPlane
                0x0002cdbc                R_MakeSpans
                0x0002cf40                R_DrawPlanes
 .text          0x0002d258     0x1424 build/r_segs.o
                0x0002d258                R_RenderMaskedSegRange
                0x0002d560                R_RenderSegLoop
                0x0002dabc                R_StoreWallRange
 .text          0x0002e67c       0x14 build/r_sky.o
                0x0002e67c                R_InitSkyMap
 .text          0x0002e690     0x1500 build/r_things.o
                0x0002e690                R_InstallSpriteLump
                0x0002e808                R_InitSpriteDefs
                0x0002eb20                R_InitSprites
                0x0002eb54                R_ClearSprites
                0x0002eb6c                R_NewVisSprite
                0x0002eb9c                R_DrawMaskedColumn
                0x0002ecc4                R_DrawVisSprite
                0x0002ee90                R_ProjectSprite
                0x0002f20c                R_AddSprites
                0x0002f2bc                R_DrawPSprite
                0x0002f530                R_DrawPlayerSprites
                0x0002f604                R_SortVisSprites
                0x0002f72c                R_DrawSprite
                0x0002fae8                R_DrawMasked
 .text          0x0002fb90     0x18b8 build/sha1.o
                0x0002fb90                SHA1_Init
                0x0002fbd8                SHA1_Update
                0x000311c4                SHA1_Final
                0x000313e0                SHA1_UpdateInt32
                0x0003141c                SHA1_UpdateString
 .text          0x00031448       0x68 build/statdump.o
                0x00031448                StatCopy
                0x000314ac                StatDump
 .text          0x000314b0      0x500 build/st_lib.o
                0x000314b0                STlib_init
                0x000314d8                STlib_initNum
                0x000314fc                STlib_drawNum
                0x000316ac                STlib_updateNum
                0x000316c8                STlib_initPercent
                0x000316fc                STlib_updatePercent
                0x0003174c                STlib_initMultIcon
                0x0003176c                STlib_updateMultIcon
                0x0003187c                STlib_initBinIcon
                0x0003189c                STlib_updateBinIcon
 .text          0x000319b0     0x1c14 build/st_stuff.o
                0x000319b0                ST_refreshBackground
                0x00031a48                ST_Responder
                0x00031fe0                ST_calcPainOffset
                0x0003203c                ST_updateFaceWidget
                0x000324fc                ST_updateWidgets
                0x0003261c                ST_Ticker
                0x00032664                ST_doPaletteStuff
                0x0003277c                ST_drawWidgets
                0x0003287c                ST_doRefresh
                0x000328a4                ST_diffDraw
                0x000328b8                ST_Drawer
                0x00032ad8                ST_loadGraphics
                0x00032dfc                ST_loadData
                0x00032e24                ST_unloadGraphics
                0x0003311c                ST_unloadData
                0x0003312c                ST_initData
                0x000331bc                ST_createWidgets
                0x000334f0                ST_Start
                0x00033528                ST_Stop
                0x00033568                ST_Init
 .text          0x000335c4      0x9bc build/s_sound.o
                0x000335c4                S_Init
                0x000336a4                S_SetSfxVolume
                0x000336e0                S_SetMusicVolume
                0x00033718                S_Shutdown
                0x0003372c                S_Start
                0x000338b4                S_ChangeMusic
                0x000339a0                S_StopSound
                0x00033a0c                S_StartSound
                0x00033d78                S_PauseSound
                0x00033db8                S_ResumeSound
                0x00033df8                S_UpdateSounds
                0x00033ef8                S_StartMusic
                0x00033f0c                S_StopMusic
                0x00033f70                S_MusicPlaying
 .text          0x00033f80       0x30 build/tables.o
                0x00033f80                SlopeDiv
 .text          0x00033fb0     0x11f8 build/v_video.o
                0x00033fb0                V_MarkRect
                0x00034024                V_CopyRect
                0x00034110                V_SetPatchClipCallback
                0x00034120                V_DrawPatch
                0x000342f4                V_DrawPatchFlipped
                0x00034490                V_DrawPatchDirect
                0x000344a0                V_DrawTLPatch
                0x00034604                V_DrawXlaPatch
                0x00034734                V_DrawAltTLPatch
                0x00034898                V_DrawShadowedPatch
                0x00034a04                V_LoadTintTable
                0x00034a2c                V_LoadXlaTable
                0x00034a54                V_DrawBlock
                0x00034b04                V_DrawFilledBox
                0x00034b64                V_DrawHorizLine
                0x00034ba0                V_DrawVertLine
                0x00034bd0                V_DrawBox
                0x00034c9c                V_DrawRawScreen
                0x00034cc0                V_Init
                0x00034cc4                V_UseBuffer
                0x00034cd4                V_RestoreBuffer
                0x00034cf0                WritePCXfile
                0x00034e6c                V_ScreenShot
                0x00034f10                V_DrawMouseSpeedBox
 .text          0x000351a8     0x2478 build/wi_stuff.o
                0x000351a8                WI_slamBackground
                0x000351cc                WI_Responder
                0x000351d4                WI_drawLF
                0x000352d4                WI_drawEL
                0x00035354                WI_drawOnLnode
                0x000354b0                WI_initAnimatedBack
                0x00035594                WI_updateAnimatedBack
                0x00035744                WI_drawAnimatedBack
                0x000357e4                WI_drawNum
                0x00035908                WI_drawPercent
                0x0003595c                WI_drawTime
                0x00035a68                WI_End
                0x00035a80                WI_unloadData
                0x00035a98                WI_initNoState
                0x00035abc                WI_updateNoState
                0x00035ae8                WI_initShowNextLoc
                0x00035b18                WI_updateShowNextLoc
                0x00035b78                WI_drawShowNextLoc
                0x00035c64                WI_drawNoState
                0x00035c84                WI_fragSum
                0x00035ce4                WI_initDeathmatchStats
                0x00035d70                WI_updateDeathmatchStats
                0x00035fc4                WI_drawDeathmatchStats
                0x000361c0                WI_initNetgameStats
                0x00036250                WI_updateNetgameStats
                0x00036690                WI_drawNetgameStats
                0x0003692c                WI_initStats
                0x00036978                WI_updateStats
                0x00036cf4                WI_drawStats
                0x00036e08                WI_checkForAccelerate
                0x00036ea0                WI_Ticker
                0x00036f5c                WI_loadData
                0x00037494                WI_Drawer
                0x00037510                WI_initVariables
                0x00037594                WI_Start
 .text          0x00037620      0x108 build/w_checksum.o
                0x00037620                W_Checksum
 .text          0x00037728       0x80 build/w_file.o
                0x00037728                W_OpenFile
                0x00037778                W_CloseFile
                0x00037790                W_Read
 .text          0x000377a8       0xa0 build/w_main.o
                0x000377a8                W_ParseCommandLine
 .text          0x00037848      0x888 build/w_wad.o
                0x00037848                W_LumpNameHash
                0x00037894                W_AddFile
                0x00037bcc                W_NumLumps
                0x00037bdc                W_CheckNumForName
                0x00037cc0                W_GetNumForName
                0x00037cf4                W_LumpLength
                0x00037d48                W_ReadLump
                0x00037dd4                W_CacheLumpNum
                0x00037ebc                W_CacheLumpName
                0x00037ee0                W_ReleaseLumpNum
                0x00037f5c                W_ReleaseLumpName
                0x00037f70                W_GenerateHashTable
                0x00038034                W_CheckCorrectIWAD
 .text          0x000380d0      0x7a0 build/z_zone.o
                0x000380d0                Z_ClearZone
                0x00038110                Z_Init
                0x00038190                Z_Free
                0x0003829c                Z_Malloc
                0x000383e0                Z_FreeTags
                0x00038448                Z_DumpHeap
                0x00038554                Z_FileDumpHeap
                0x0003869c                Z_CheckHeap
                0x00038754                Z_ChangeTag2
                0x000387d0                Z_ChangeUser
                0x00038814                Z_FreeMemory
                0x0003885c                Z_ZoneSize
 .text          0x00038870       0xd0 build/w_file_stdc.o
                0x00038870                W_StdC_Read
 .text          0x00038940      0x3f0 build/i_input.o
                0x00038940                I_InitInput
                0x00038a00                I_GetEvent
                0x00038d20                I_ShutdownInput
 .text          0x00038d30      0x53c build/i_video.o
                0x00038d30                cmap_to_rgb565
                0x00038d9c                cmap_to_fb
                0x00038e90                I_InitGraphics
                0x00039030                I_ShutdownGraphics
                0x0003904c                I_StartFrame
                0x00039050                I_StartTic
                0x00039060                I_UpdateNoBlit
                0x00039064                I_FinishUpdate
                0x00039128                I_ReadScreen
                0x00039148                I_SetPalette
                0x000391d4                I_GetPaletteIndex
                0x0003923c                I_BeginRead
                0x00039240                I_EndRead
                0x00039244                I_SetWindowTitle
                0x00039254                I_GraphicsCheckCommandLine
                0x00039258                I_SetGrabMouseCallback
                0x0003925c                I_EnableLoadingDisk
                0x00039260                I_BindVideoVariables
                0x00039264                I_DisplayFPSDots
                0x00039268                I_CheckIsScreensaver
 .text          0x0003926c       0x44 build/doomgeneric.o
                0x0003926c                doomgeneric_Create
 .text          0x000392b0      0x490 build/doomgeneric_xlib.o
                0x000392b0                DG_Init
                0x00039408                DG_DrawFrame
                0x00039624                DG_SleepMs
                0x0003963c                DG_GetTicksMs
                0x00039680                DG_GetKey
                0x000396cc                DG_SetWindowTitle
                0x0003972c                main
 .text          0x00039740       0x44 /usr/lib/arm-linux-gnueabihf/libc_nonshared.a(elf-init.oS)
                0x00039740                __libc_csu_init
                0x00039780                __libc_csu_fini
 *fill*         0x00039784        0x4 
 .text          0x00039788      0x278 /usr/bin/../lib/gcc/arm-linux-gnueabihf/4.8/libgcc.a(_udivsi3.o)
                0x00039788                __aeabi_uidiv
                0x00039788                __udivsi3
                0x000399e4                __aeabi_uidivmod
 .text          0x00039a00      0x2b0 /usr/bin/../lib/gcc/arm-linux-gnueabihf/4.8/libgcc.a(_divsi3.o)
                0x00039a00                __divsi3
                0x00039a00                __aeabi_idiv
                0x00039c94                __aeabi_idivmod
 .text          0x00039cb0       0xc4 /usr/bin/../lib/gcc/arm-linux-gnueabihf/4.8/libgcc.a(_umodsi3.o)
                0x00039cb0                __umodsi3
 .text          0x00039d74       0xe0 /usr/bin/../lib/gcc/arm-linux-gnueabihf/4.8/libgcc.a(_modsi3.o)
                0x00039d74                __modsi3
 .text          0x00039e54       0x38 /usr/bin/../lib/gcc/arm-linux-gnueabihf/4.8/libgcc.a(_aeabi_ldivmod.o)
                0x00039e54                __aeabi_ldivmod
 .text          0x00039e8c        0xc /usr/bin/../lib/gcc/arm-linux-gnueabihf/4.8/libgcc.a(_dvmd_lnx.o)
                0x00039e8c                __aeabi_ldiv0
                0x00039e8c                __aeabi_idiv0
 .text          0x00039e98       0x60 /usr/bin/../lib/gcc/arm-linux-gnueabihf/4.8/libgcc.a(bpabi.o)
                0x00039e98                __gnu_ldivmod_helper
                0x00039ec8                __gnu_uldivmod_helper
 .text          0x00039ef8      0x35c /usr/bin/../lib/gcc/arm-linux-gnueabihf/4.8/libgcc.a(_divdi3.o)
                0x00039ef8                __divdi3
 .text          0x0003a254      0x2fc /usr/bin/../lib/gcc/arm-linux-gnueabihf/4.8/libgcc.a(_udivdi3.o)
                0x0003a254                __udivdi3
 *(.gnu.warning)
 *(.glue_7t)
 .glue_7t       0x00000000        0x0 linker stubs
 *(.glue_7)
 .glue_7        0x00000000        0x0 linker stubs
 *(.vfp11_veneer)
 .vfp11_veneer  0x00000000        0x0 linker stubs
 *(.v4_bx)
 .v4_bx         0x00000000        0x0 linker stubs

.fini           0x0003a550        0x8
 *(SORT(.fini))
 .fini          0x0003a550        0x4 /usr/bin/../lib/gcc/arm-linux-gnueabihf/4.8/../../../arm-linux-gnueabihf/crti.o
                0x0003a550                _fini
 .fini          0x0003a554        0x4 /usr/bin/../lib/gcc/arm-linux-gnueabihf/4.8/../../../arm-linux-gnueabihf/crtn.o
                0x0003a558                PROVIDE (__etext, .)
                0x0003a558                PROVIDE (_etext, .)
                0x0003a558                PROVIDE (etext, .)

.rodata         0x0003a560    0x183e0
 *(.rodata .rodata.* .gnu.linkonce.r.*)
 .rodata.str1.1
                0x0003a560       0x81 build/button.o
                                 0x84 (size before relaxing)
 .rodata.str1.1
                0x0003a5e1       0x21 build/fnd.o
 .rodata.str1.1
                0x0003a602       0x54 build/lcdtext.o
 .rodata.str1.1
                0x0003a656       0x19 build/led.o
 .rodata.str1.1
                0x0003a66f      0x224 build/colorled.o
                                0x22b (size before relaxing)
 .rodata.str1.1
                0x0003a893      0x10f build/accelMagGyro.o
                                0x114 (size before relaxing)
 .rodata.str1.1
                0x0003a9a2       0x67 build/am_map.o
 *fill*         0x0003aa09        0x3 
 .rodata        0x0003aa0c       0x20 build/am_map.o
 .rodata.cst16  0x0003aa2c       0x10 build/am_map.o
 .rodata.str1.1
                0x0003aa3c      0x328 build/dstrings.o
 .rodata.str1.1
                0x0003ad64      0x189 build/d_iwad.o
                                0x1a6 (size before relaxing)
 *fill*         0x0003aeed        0x3 
 .rodata        0x0003aef0       0xe0 build/d_iwad.o
 .rodata.str1.16
                0x0003afd0       0x2d build/d_iwad.o
                                 0x30 (size before relaxing)
 .rodata.str1.1
                0x0003affd       0x54 build/d_loop.o
 *fill*         0x0003b051        0xf 
 .rodata.str1.16
                0x0003b060       0x1a build/d_loop.o
                                 0x20 (size before relaxing)
 .rodata.str1.1
                0x0003b07a      0x4ed build/d_main.o
                                0x53b (size before relaxing)
 *fill*         0x0003b567        0x1 
 .rodata        0x0003b568      0x148 build/d_main.o
 .rodata.str1.16
                0x0003b6b0      0x4d9 build/d_main.o
                                0x4e0 (size before relaxing)
 *fill*         0x0003bb89        0x7 
 .rodata        0x0003bb90      0x150 build/d_mode.o
 .rodata.str1.1
                0x0003bce0       0x1a build/d_mode.o
                                 0x3c (size before relaxing)
 .rodata.str1.1
                0x0003bcfa       0xb3 build/d_net.o
                                 0xcb (size before relaxing)
 *fill*         0x0003bdad        0x3 
 .rodata.str1.16
                0x0003bdb0       0xaa build/d_net.o
                                 0xb0 (size before relaxing)
 .rodata.str1.1
                0x0003be5a     0x1ef5 build/f_finale.o
                               0x1f08 (size before relaxing)
 *fill*         0x0003dd4f        0x1 
 .rodata        0x0003dd50       0x18 build/f_wipe.o
 .rodata        0x0003dd68       0x68 build/g_game.o
 .rodata.str1.1
                0x0003ddd0      0x348 build/g_game.o
                                0x369 (size before relaxing)
 .rodata.str1.1
                0x0003e118      0xc0f build/hu_stuff.o
 .rodata.str1.1
                0x0003ed27      0x2a3 build/info.o
                                0x2b2 (size before relaxing)
 .rodata.str1.1
                0x0003efca       0xa7 build/i_joystick.o
 .rodata.str1.1
                0x0003f071       0x9e build/i_sound.o
                                 0x9f (size before relaxing)
 .rodata.str1.1
                0x0003f10f       0xfb build/i_system.o
 .rodata        0x0003f20a       0x1e build/i_system.o
 *fill*         0x0003f228        0x8 
 .rodata.str1.16
                0x0003f230      0x116 build/i_system.o
                                0x120 (size before relaxing)
 .rodata.str1.1
                0x0003f346      0xa6e build/m_config.o
                                0xc1c (size before relaxing)
 .rodata        0x0003fdb4      0x200 build/m_config.o
 .rodata.str1.1
                0x0003ffb4       0x16 build/m_controls.o
                                0x630 (size before relaxing)
 .rodata.str1.1
                0x0003ffca      0x3f7 build/m_menu.o
                                0x40f (size before relaxing)
 *fill*         0x000403c1        0x3 
 .rodata        0x000403c4       0x10 build/m_menu.o
 .rodata.str1.1
                0x000403d4       0xde build/m_misc.o
                                 0xec (size before relaxing)
 .rodata        0x000404b2      0x100 build/m_random.o
 .rodata.str1.1
                0x000405b2      0x137 build/p_doors.o
 .rodata.str1.1
                0x000406e9       0x3b build/p_enemy.o
 .rodata.str1.1
                0x00040724      0x3d7 build/p_inter.o
 .rodata.str1.1
                0x00040afb       0x72 build/p_map.o
 *fill*         0x00040b6d        0x3 
 .rodata        0x00040b70      0x114 build/p_maputl.o
 .rodata.str1.1
                0x00040c84       0x2d build/p_mobj.o
 .rodata.str1.1
                0x00040cb1       0x45 build/p_plats.o
 .rodata.str1.1
                0x00040cf6       0xc3 build/p_saveg.o
                                 0xe1 (size before relaxing)
 .rodata.str1.1
                0x00040db9       0x5a build/p_setup.o
 .rodata.str1.1
                0x00040e13       0x28 build/p_sight.o
 .rodata.str1.1
                0x00040e3b      0x242 build/p_spec.o
 .rodata.str1.1
                0x0004107d       0x25 build/p_switch.o
 .rodata.str1.1
                0x000410a2       0x23 build/r_bsp.o
 .rodata.str1.1
                0x000410c5      0x120 build/r_data.o
                                0x12e (size before relaxing)
 .rodata.str1.1
                0x000411e5       0xa6 build/r_draw.o
 .rodata.str1.1
                0x0004128b       0xa6 build/r_plane.o
 .rodata.str1.1
                0x00041331       0x20 build/r_segs.o
 .rodata.str1.1
                0x00041351      0x1d2 build/r_things.o
 .rodata.str1.1
                0x00041523      0x186 build/sounds.o
                                0x191 (size before relaxing)
 .rodata.str1.1
                0x00000000        0xa build/statdump.o
 .rodata.str1.1
                0x000416a9       0x5b build/st_lib.o
 .rodata.str1.1
                0x00041704      0x1bd build/st_stuff.o
                                0x1c5 (size before relaxing)
 *fill*         0x000418c1        0x3 
 .rodata        0x000418c4       0x24 build/s_sound.o
 .rodata.str1.1
                0x000418e8       0x69 build/s_sound.o
 *fill*         0x00041951        0x3 
 .rodata        0x00041954    0x10504 build/tables.o
                0x00041954                finetangent
                0x00045954                finesine
                0x0004f954                tantoangle
                0x00051958                gammatable
 .rodata.str1.1
                0x00051e58      0x100 build/v_video.o
                                0x108 (size before relaxing)
 .rodata        0x00051f58      0x130 build/wi_stuff.o
 .rodata.str1.1
                0x00052088       0xf9 build/wi_stuff.o
                                0x10b (size before relaxing)
 *fill*         0x00052181        0x3 
 .rodata.str4.4
                0x00052184       0x10 build/wi_stuff.o
 .rodata.str1.1
                0x00052194        0x6 build/w_file.o
 .rodata.str1.1
                0x0005219a        0x6 build/w_main.o
                                 0x12 (size before relaxing)
 .rodata.str1.1
                0x000521a0      0x1d2 build/w_wad.o
                                0x1d6 (size before relaxing)
 *fill*         0x00052372        0x2 
 .rodata        0x00052374       0x20 build/w_wad.o
 .rodata.str1.1
                0x00052394      0x2a0 build/z_zone.o
 *fill*         0x00052634        0xc 
 .rodata.str1.16
                0x00052640       0x90 build/z_zone.o
 .rodata.str1.1
                0x00000000        0x3 build/w_file_stdc.o
 .rodata        0x000526d0      0x100 build/i_input.o
 .rodata.str1.1
                0x000527d0      0x149 build/i_video.o
 *fill*         0x00052919        0x7 
 .rodata.str1.16
                0x00052920       0x20 build/i_video.o

.rodata1
 *(.rodata1)

.ARM.extab
 *(.ARM.extab* .gnu.linkonce.armextab.*)
                0x00052940                PROVIDE (__exidx_start, .)

.ARM.exidx      0x00052940        0x8
 *(.ARM.exidx* .gnu.linkonce.armexidx.*)
 .ARM.exidx     0x00052940        0x8 /usr/bin/../lib/gcc/arm-linux-gnueabihf/4.8/../../../arm-linux-gnueabihf/crt1.o
 .ARM.exidx     0x00052948        0x0 /usr/bin/../lib/gcc/arm-linux-gnueabihf/4.8/libgcc.a(_divdi3.o)
                                  0x8 (size before relaxing)
 .ARM.exidx     0x00052948        0x0 /usr/bin/../lib/gcc/arm-linux-gnueabihf/4.8/libgcc.a(_udivdi3.o)
                                  0x8 (size before relaxing)
                0x00052948                PROVIDE (__exidx_end, .)

.eh_frame_hdr   0x00052948        0x0
 *(.eh_frame_hdr)
 .eh_frame_hdr  0x00000000        0x0 /usr/bin/../lib/gcc/arm-linux-gnueabihf/4.8/../../../arm-linux-gnueabihf/crtn.o

.eh_frame       0x00052948        0x4
 *(.eh_frame)
 .eh_frame      0x00052948        0x4 /usr/bin/../lib/gcc/arm-linux-gnueabihf/4.8/crtend.o

.gcc_except_table
 *(.gcc_except_table .gcc_except_table.*)

.exception_ranges
 *(.exception_ranges .exception_ranges*)
                0x0005294c                . = (ALIGN (0x8000) - ((0x8000 - .) & 0x7fff))
                0x0005aef4                . = DATA_SEGMENT_ALIGN (0x8000, 0x1000)

.eh_frame
 *(.eh_frame)

.gcc_except_table
 *(.gcc_except_table .gcc_except_table.*)

.exception_ranges
 *(.exception_ranges .exception_ranges*)

.tdata
 *(.tdata .tdata.* .gnu.linkonce.td.*)

.tbss
 *(.tbss .tbss.* .gnu.linkonce.tb.*)
 *(.tcommon)

.preinit_array  0x0005aef4        0x0
                0x0005aef4                PROVIDE (__preinit_array_start, .)
 *(.preinit_array)
                0x0005aef4                PROVIDE (__preinit_array_end, .)

.init_array     0x0005aef4        0x4
                0x0005aef4                PROVIDE (__init_array_start, .)
 *(SORT(.init_array.*) SORT(.ctors.*))
 *(.init_array EXCLUDE_FILE(*crtend?.o *crtend.o *crtbegin?.o *crtbegin.o) .ctors)
 .init_array    0x0005aef4        0x4 /usr/bin/../lib/gcc/arm-linux-gnueabihf/4.8/crtbegin.o
                0x0005aef8                PROVIDE (__init_array_end, .)

.fini_array     0x0005aef8        0x4
                0x0005aef8                PROVIDE (__fini_array_start, .)
 *(SORT(.fini_array.*) SORT(.dtors.*))
 *(.fini_array EXCLUDE_FILE(*crtend?.o *crtend.o *crtbegin?.o *crtbegin.o) .dtors)
 .fini_array    0x0005aef8        0x4 /usr/bin/../lib/gcc/arm-linux-gnueabihf/4.8/crtbegin.o
                0x0005aefc                PROVIDE (__fini_array_end, .)

.ctors
 *crtbegin.o(.ctors)
 *crtbegin?.o(.ctors)
 *(EXCLUDE_FILE(*crtend?.o *crtend.o) .ctors)
 *(SORT(.ctors.*))
 *(.ctors)

.dtors
 *crtbegin.o(.dtors)
 *crtbegin?.o(.dtors)
 *(EXCLUDE_FILE(*crtend?.o *crtend.o) .dtors)
 *(SORT(.dtors.*))
 *(.dtors)

.jcr            0x0005aefc        0x4
 *(.jcr)
 .jcr           0x0005aefc        0x0 /usr/bin/../lib/gcc/arm-linux-gnueabihf/4.8/crtbegin.o
 .jcr           0x0005aefc        0x4 /usr/bin/../lib/gcc/arm-linux-gnueabihf/4.8/crtend.o

.data.rel.ro
 *(.data.rel.ro.local* .gnu.linkonce.d.rel.ro.local.*)
 *(.data.rel.ro .data.rel.ro.* .gnu.linkonce.d.rel.ro.*)

.dynamic        0x0005af00      0x100
 *(.dynamic)
 .dynamic       0x0005af00      0x100 /usr/bin/../lib/gcc/arm-linux-gnueabihf/4.8/../../../arm-linux-gnueabihf/crt1.o
                0x0005af00                _DYNAMIC
                0x0005b000                . = DATA_SEGMENT_RELRO_END (., 0x0)

.got            0x0005b000      0x150
 *(.got.plt)
 .got.plt       0x0005b000      0x14c /usr/bin/../lib/gcc/arm-linux-gnueabihf/4.8/../../../arm-linux-gnueabihf/crt1.o
                0x0005b000                _GLOBAL_OFFSET_TABLE_
 *(.igot.plt)
 .igot.plt      0x00000000        0x0 /usr/bin/../lib/gcc/arm-linux-gnueabihf/4.8/../../../arm-linux-gnueabihf/crt1.o
 *(.got)
 .got           0x0005b14c        0x4 /usr/bin/../lib/gcc/arm-linux-gnueabihf/4.8/../../../arm-linux-gnueabihf/crt1.o
 *(.igot)

.data           0x0005b150     0xe9ac
                0x0005b150                PROVIDE (__data_start, .)
 *(.data .data.* .gnu.linkonce.d.*)
 .data          0x0005b150        0x4 build/button.o
 .data          0x0005b154        0x4 build/lcdtext.o
 *fill*         0x0005b158        0x8 
 .data          0x0005b160      0x250 build/am_map.o
                0x0005b160                player_arrow
                0x0005b1d0                cheat_player_arrow
                0x0005b2d0                triangle_guy
                0x0005b300                thintriangle_guy
                0x0005b330                cheat_amap
 .data          0x0005b3b0        0x8 build/doomstat.o
                0x0005b3b0                gamemode
                0x0005b3b4                gameversion
 .data          0x0005b3b8       0x40 build/dstrings.o
                0x0005b3b8                doom1_endmsg
                0x0005b3d8                doom2_endmsg
 .data          0x0005b3f8       0xd8 build/d_items.o
                0x0005b3f8                weaponinfo
 .data          0x0005b4d0        0x4 build/d_loop.o
 .data          0x0005b4d4        0xc build/d_main.o
                0x0005b4d4                show_endoom
                0x0005b4d8                wipegamestate
 .data          0x0005b4e0       0x10 build/d_net.o
 .data          0x0005b4f0      0x248 build/f_finale.o
                0x0005b6a8                castorder
 .data          0x0005b738      0x148 build/g_game.o
                0x0005b738                precache
                0x0005b73c                forwardmove
                0x0005b744                sidemove
                0x0005b74c                angleturn
                0x0005b758                vanilla_savegame_limit
                0x0005b75c                vanilla_demo_limit
                0x0005b760                pars
                0x0005b800                cpars
 .data          0x0005b880      0x26c build/hu_stuff.o
                0x0005b880                chat_macros
                0x0005b8a8                player_names
                0x0005b8b8                mapnames
                0x0005b96c                mapnames_commercial
 .data          0x0005baec     0x9d2c build/info.o
                0x0005baec                sprnames
                0x0005bd18                states
                0x000626dc                mobjinfo
 *fill*         0x00065818        0x8 
 .data          0x00065820       0x40 build/i_joystick.o
 .data          0x00065860       0x18 build/i_sound.o
                0x00065860                snd_samplerate
                0x00065864                snd_cachesize
                0x00065868                snd_maxslicetime_ms
                0x0006586c                snd_musiccmd
                0x00065870                snd_musicdevice
                0x00065874                snd_sfxdevice
 .data          0x00065878        0x4 build/i_system.o
 *fill*         0x0006587c        0x4 
 .data          0x00065880     0x1270 build/m_config.o
 .data          0x00066af0      0x19c build/m_controls.o
                0x00066af0                key_right
                0x00066af4                key_left
                0x00066af8                key_up
                0x00066afc                key_down
                0x00066b00                key_strafeleft
                0x00066b04                key_straferight
                0x00066b08                key_fire
                0x00066b0c                key_use
                0x00066b10                key_strafe
                0x00066b14                key_speed
                0x00066b18                key_flyup
                0x00066b1c                key_flydown
                0x00066b20                key_flycenter
                0x00066b24                key_lookup
                0x00066b28                key_lookdown
                0x00066b2c                key_lookcenter
                0x00066b30                key_invleft
                0x00066b34                key_invright
                0x00066b38                key_useartifact
                0x00066b3c                key_jump
                0x00066b40                key_arti_all
                0x00066b44                key_arti_health
                0x00066b48                key_arti_poisonbag
                0x00066b4c                key_arti_blastradius
                0x00066b50                key_arti_teleport
                0x00066b54                key_arti_teleportother
                0x00066b58                key_arti_egg
                0x00066b5c                key_arti_invulnerability
                0x00066b60                key_usehealth
                0x00066b64                key_invquery
                0x00066b68                key_mission
                0x00066b6c                key_invpop
                0x00066b70                key_invkey
                0x00066b74                key_invhome
                0x00066b78                key_invend
                0x00066b7c                key_invuse
                0x00066b80                key_invdrop
                0x00066b84                mousebstrafe
                0x00066b88                mousebforward
                0x00066b8c                mousebjump
                0x00066b90                mousebstrafeleft
                0x00066b94                mousebstraferight
                0x00066b98                mousebbackward
                0x00066b9c                mousebuse
                0x00066ba0                mousebprevweapon
                0x00066ba4                mousebnextweapon
                0x00066ba8                key_message_refresh
                0x00066bac                key_pause
                0x00066bb0                key_demo_quit
                0x00066bb4                key_spy
                0x00066bb8                key_multi_msg
                0x00066bbc                key_weapon1
                0x00066bc0                key_weapon2
                0x00066bc4                key_weapon3
                0x00066bc8                key_weapon4
                0x00066bcc                key_weapon5
                0x00066bd0                key_weapon6
                0x00066bd4                key_weapon7
                0x00066bd8                key_weapon8
                0x00066bdc                key_map_north
                0x00066be0                key_map_south
                0x00066be4                key_map_east
                0x00066be8                key_map_west
                0x00066bec                key_map_zoomin
                0x00066bf0                key_map_zoomout
                0x00066bf4                key_map_toggle
                0x00066bf8                key_map_maxzoom
                0x00066bfc                key_map_follow
                0x00066c00                key_map_grid
                0x00066c04                key_map_mark
                0x00066c08                key_map_clearmark
                0x00066c0c                key_menu_activate
                0x00066c10                key_menu_up
                0x00066c14                key_menu_down
                0x00066c18                key_menu_left
                0x00066c1c                key_menu_right
                0x00066c20                key_menu_back
                0x00066c24                key_menu_forward
                0x00066c28                key_menu_confirm
                0x00066c2c                key_menu_abort
                0x00066c30                key_menu_help
                0x00066c34                key_menu_save
                0x00066c38                key_menu_load
                0x00066c3c                key_menu_volume
                0x00066c40                key_menu_detail
                0x00066c44                key_menu_qsave
                0x00066c48                key_menu_endgame
                0x00066c4c                key_menu_messages
                0x00066c50                key_menu_qload
                0x00066c54                key_menu_quit
                0x00066c58                key_menu_gamma
                0x00066c5c                key_menu_incscreen
                0x00066c60                key_menu_decscreen
                0x00066c64                joybstrafe
                0x00066c68                joybuse
                0x00066c6c                joybspeed
                0x00066c70                joybstrafeleft
                0x00066c74                joybstraferight
                0x00066c78                joybjump
                0x00066c7c                joybprevweapon
                0x00066c80                joybnextweapon
                0x00066c84                joybmenu
                0x00066c88                dclick_use
 .data          0x00066c8c      0x4e4 build/m_menu.o
                0x00066c8c                mouseSensitivity
                0x00066c90                showMessages
                0x00066c94                screenblocks
                0x00066c98                gammamsg
                0x00066d1c                skullName
                0x00066d24                MainMenu
                0x00066d9c                MainDef
                0x00066db4                EpisodeMenu
                0x00066e04                EpiDef
                0x00066e1c                NewGameMenu
                0x00066e80                NewDef
                0x00066e98                OptionsMenu
                0x00066f38                OptionsDef
                0x00066f50                ReadMenu1
                0x00066f64                ReadDef1
                0x00066f7c                ReadMenu2
                0x00066f90                ReadDef2
                0x00066fa8                SoundMenu
                0x00066ff8                SoundDef
                0x00067010                LoadMenu
                0x00067088                LoadDef
                0x000670a0                SaveMenu
                0x00067118                SaveDef
                0x00067130                quitsounds
                0x00067150                quitsounds2
 .data          0x00067170       0x78 build/p_enemy.o
                0x00067170                opposite
                0x00067194                diags
                0x000671a4                xspeed
                0x000671c4                yspeed
                0x000671e4                TRACEANGLE
 .data          0x000671e8       0x20 build/p_inter.o
                0x000671e8                maxammo
                0x000671f8                clipammo
 .data          0x00067208      0x284 build/p_spec.o
                0x00067208                animdefs
 .data          0x0006748c      0x334 build/p_switch.o
                0x0006748c                alphSwitchList
 .data          0x000677c0       0xc0 build/r_bsp.o
                0x000677c0                checkcoord
 .data          0x00067880       0xc8 build/r_draw.o
                0x00067880                fuzzoffset
 .data          0x00067948        0x4 build/r_main.o
                0x00067948                validcount
 .data          0x0006794c     0x18b0 build/sounds.o
                0x0006794c                S_music
                0x00067d8c                S_sfx
 *fill*         0x000691fc        0x4 
 .data          0x00069200      0x350 build/st_stuff.o
                0x00069200                cheat_mus
                0x00069234                cheat_god
                0x00069268                cheat_ammo
                0x0006929c                cheat_ammonokey
                0x000692d0                cheat_noclip
                0x00069304                cheat_commercial_noclip
                0x00069338                cheat_powerup
                0x000694a4                cheat_choppers
                0x000694d8                cheat_clev
                0x0006950c                cheat_mypos
 .data          0x00069550        0xc build/s_sound.o
                0x00069550                sfxVolume
                0x00069554                musicVolume
                0x00069558                snd_channels
 .data          0x0006955c        0x4 build/tables.o
                0x0006955c                finecosine
 .data          0x00069560      0x580 build/wi_stuff.o
 .data          0x00069ae0        0xc build/w_file_stdc.o
                0x00069ae0                stdc_wad_file
 .data          0x00069aec        0x4 build/i_input.o
                0x00069aec                vanilla_keyboard_mapping
 .data          0x00069af0        0xc build/i_video.o
                0x00069af0                fb_scaling
                0x00069af4                mouse_acceleration
                0x00069af8                mouse_threshold

.tm_clone_table
                0x00069afc        0x0
 .tm_clone_table
                0x00069afc        0x0 /usr/bin/../lib/gcc/arm-linux-gnueabihf/4.8/crtbegin.o
 .tm_clone_table
                0x00069afc        0x0 /usr/bin/../lib/gcc/arm-linux-gnueabihf/4.8/crtend.o

.data1
 *(.data1)
                0x00069afc                _edata = .
                0x00069afc                PROVIDE (edata, .)
                0x00069afc                . = .
                0x00069afc                __bss_start = .
                0x00069afc                __bss_start__ = .

.bss            0x00069b00    0x3ba6c
 *(.dynbss)
 .dynbss        0x00069b00        0x4 /usr/bin/../lib/gcc/arm-linux-gnueabihf/4.8/../../../arm-linux-gnueabihf/crt1.o
                0x00069b00                stderr@@GLIBC_2.4
 *(.bss .bss.* .gnu.linkonce.b.*)
 .bss           0x00069b04        0x1 /usr/bin/../lib/gcc/arm-linux-gnueabihf/4.8/crtbegin.o
 *fill*         0x00069b05        0x3 
 .bss           0x00069b08      0x108 build/button.o
                0x00069b08                msgID
                0x00069b0c                buttonPath
 .bss           0x00069c10       0x10 build/led.o
                0x00069c10                pdata
 .bss           0x00069c20        0x8 build/accelMagGyro.o
                0x00069c20                fd
                0x00069c24                fp
 .bss           0x00069c28        0x8 build/dummy.o
                0x00069c28                net_client_connected
                0x00069c2c                drone
 .bss           0x00069c30      0x150 build/am_map.o
                0x00069c30                automapactive
 .bss           0x00069d80        0x4 build/doomstat.o
                0x00069d80                gamemission
 *fill*         0x00069d84        0xc 
 .bss           0x00069d90      0x510 build/d_event.o
 .bss           0x0006a2a0      0x210 build/d_iwad.o
 .bss           0x0006a4b0     0x5060 build/d_loop.o
                0x0006a4b0                singletics
 .bss           0x0006f510       0x30 build/d_main.o
                0x0006f510                main_loop_started
 .bss           0x0006f540       0x50 build/d_net.o
 .bss           0x0006f590        0x4 build/f_finale.o
 *fill*         0x0006f594        0xc 
 .bss           0x0006f5a0       0x20 build/f_wipe.o
 .bss           0x0006f5c0      0x540 build/g_game.o
                0x0006f5c0                testcontrols
 .bss           0x0006fb00      0x590 build/hu_stuff.o
 .bss           0x00070090       0x20 build/i_joystick.o
 .bss           0x000700b0       0x10 build/i_sound.o
 .bss           0x000700c0       0x20 build/i_system.o
 .bss           0x000700e0        0x4 build/i_timer.o
 *fill*         0x000700e4        0x4 
 .bss           0x000700e8        0x8 build/m_config.o
 .bss           0x000700f0       0x14 build/m_controls.o
                0x000700f0                mousebfire
                0x000700f4                key_prevweapon
                0x000700f8                key_nextweapon
                0x000700fc                key_menu_screenshot
                0x00070100                joybfire
 *fill*         0x00070104        0xc 
 .bss           0x00070110       0x30 build/m_menu.o
                0x00070110                detailLevel
 .bss           0x00070140        0x8 build/m_random.o
                0x00070140                rndindex
                0x00070144                prndindex
 .bss           0x00070148        0x8 build/p_enemy.o
                0x00070148                braintargeton
 .bss           0x00070150        0x4 build/p_map.o
 .bss           0x00070154       0x9c build/p_mobj.o
 .bss           0x000701f0       0x10 build/p_saveg.o
 .bss           0x00070200       0x60 build/p_setup.o
 .bss           0x00070260       0x10 build/p_spec.o
 .bss           0x00070270        0x8 build/r_draw.o
                0x00070270                fuzzpos
 *fill*         0x00070278        0x8 
 .bss           0x00070280      0x500 build/r_things.o
 .bss           0x00070780     0x1904 build/statdump.o
 *fill*         0x00072084        0xc 
 .bss           0x00072090      0x4c0 build/st_stuff.o
 .bss           0x00072550       0x10 build/s_sound.o
 .bss           0x00072560       0x10 build/v_video.o
                0x00072560                tinttable
                0x00072564                xlatab
 .bss           0x00072570      0x180 build/wi_stuff.o
 .bss           0x000726f0        0x8 build/w_checksum.o
 .bss           0x000726f8        0x8 build/w_wad.o
                0x000726f8                numlumps
 .bss           0x00072700       0x20 build/i_input.o
 .bss           0x00072720      0x444 build/i_video.o
                0x00072720                usemouse
                0x00072724                I_VideoBuffer
                0x00072728                screensaver_mode
                0x0007272c                usegamma
 .bss           0x00072b64        0x4 build/doomgeneric.o
                0x00072b64                DG_ScreenBuffer
 *fill*         0x00072b68        0x8 
 .bss           0x00072b70       0x40 build/doomgeneric_xlib.o
 *(COMMON)
 COMMON         0x00072bb0       0x2c build/lcdtext.o
                0x00072bb0                stlcd
 COMMON         0x00072bdc        0x4 build/led.o
                0x00072bdc                leddat
 COMMON         0x00072be0        0x8 build/doomstat.o
                0x00072be0                gamedescription
                0x00072be4                modifiedgame
 COMMON         0x00072be8       0x10 build/d_loop.o
                0x00072be8                lasttime
                0x00072bec                offsetms
                0x00072bf0                gametic
                0x00072bf4                ticdup
 COMMON         0x00072bf8      0x8c4 build/d_main.o
                0x00072bf8                startskill
                0x00072bfc                advancedemo
                0x00072c00                autostart
                0x00072c04                mapdir
                0x00073004                startloadgame
                0x00073008                startmap
                0x0007300c                demosequence
                0x00073010                startepisode
                0x00073014                respawnparm
                0x00073018                title
                0x00073098                iwadfile
                0x0007309c                pagename
                0x000730a0                nomonsters
                0x000730a4                bfgedition
                0x000730a8                savegamedir
                0x000730ac                wadfile
                0x000734ac                fastparm
                0x000734b0                storedemo
                0x000734b4                devparm
                0x000734b8                pagetic
 COMMON         0x000734bc        0x4 build/d_net.o
                0x000734bc                netcmds
 COMMON         0x000734c0       0x2c build/f_finale.o
                0x000734c0                casttics
                0x000734c4                castnum
                0x000734c8                finaletext
                0x000734cc                finalestage
                0x000734d0                finalecount
                0x000734d4                castdeath
                0x000734d8                castframes
                0x000734dc                castattacking
                0x000734e0                castonmelee
                0x000734e4                finaleflat
                0x000734e8                caststate
 COMMON         0x000734ec      0x994 build/g_game.o
                0x000734ec                nodrawers
                0x000734f0                usergame
                0x000734f4                d_map
                0x000734f8                displayplayer
                0x000734fc                sendpause
                0x00073500                netgame
                0x00073504                levelstarttic
                0x00073508                mousex
                0x0007350c                playeringame
                0x0007351c                gameepisode
                0x00073520                netdemo
                0x00073524                mousey
                0x00073528                demoend
                0x0007352c                demorecording
                0x00073530                timelimit
                0x00073534                consistancy
                0x00073734                gameaction
                0x00073738                d_skill
                0x0007373c                bodyque
                0x000737bc                sendsave
                0x000737c0                demoname
                0x000737c4                gamemap
                0x000737c8                gamestate
                0x000737cc                wminfo
                0x00073894                starttime
                0x00073898                totalkills
                0x0007389c                totalitems
                0x000738a0                respawnmonsters
                0x000738a4                players
                0x00073d24                testcontrols_mousespeed
                0x00073d28                timingdemo
                0x00073d2c                viewactive
                0x00073d30                lowres_turn
                0x00073d34                demo_p
                0x00073d38                bodyqueslot
                0x00073d3c                savename
                0x00073e3c                singledemo
                0x00073e40                gameskill
                0x00073e44                oldgamestate
                0x00073e48                secretexit
                0x00073e4c                totalsecret
                0x00073e50                longtics
                0x00073e54                paused
                0x00073e58                deathmatch
                0x00073e5c                consoleplayer
                0x00073e60                d_episode
                0x00073e64                defdemoname
                0x00073e68                demobuffer
                0x00073e6c                turbodetected
                0x00073e7c                demoplayback
 COMMON         0x00073e80      0x108 build/hu_stuff.o
                0x00073e80                message_dontfuckwithme
                0x00073e84                chat_on
                0x00073e88                chat_char
                0x00073e8c                hu_font
 COMMON         0x00073f88        0x8 build/m_argv.o
                0x00073f88                myargv
                0x00073f8c                myargc
 COMMON         0x00073f90        0x4 build/m_config.o
                0x00073f90                configdir
 COMMON         0x00073f94       0x20 build/m_controls.o
                0x00073f94                key_multi_msgplayer
 COMMON         0x00073fb4      0x264 build/m_menu.o
                0x00073fb4                savegamestrings
                0x000740a4                main_e
                0x000740a8                itemOn
                0x000740aa                saveOldString
                0x000740c2                tempstring
                0x00074114                currentMenu
                0x00074118                epi
                0x0007411c                saveStringEnter
                0x00074120                inhelpscreens
                0x00074124                messageRoutine
                0x00074128                sound_e
                0x0007412c                messx
                0x00074130                read_e2
                0x00074134                skullAnimCounter
                0x00074136                endstring
                0x000741d8                screenSize
                0x000741dc                load_e
                0x000741e0                options_e
                0x000741e4                newgame_e
                0x000741e8                quickSaveSlot
                0x000741ec                messageNeedsInput
                0x000741f0                messageLastMenuActive
                0x000741f4                episodes_e
                0x000741f8                saveSlot
                0x000741fc                menuactive
                0x00074200                messy
                0x00074204                messageToPrint
                0x00074208                whichSkull
                0x0007420c                messageString
                0x00074210                saveCharIndex
                0x00074214                read_e
 COMMON         0x00074218       0x78 build/p_ceilng.o
                0x00074218                activeceilings
 COMMON         0x00074290       0x98 build/p_enemy.o
                0x00074290                viletryx
                0x00074294                vileobj
                0x00074298                numbraintargets
                0x0007429c                corpsehit
                0x000742a0                braintargets
                0x00074320                viletryy
                0x00074324                soundtarget
 COMMON         0x00074328       0xd4 build/p_map.o
                0x00074328                secondslidefrac
                0x0007432c                slidemo
                0x00074330                nofit
                0x00074334                bestslidefrac
                0x00074338                tmthing
                0x0007433c                usething
                0x00074340                shootthing
                0x00074344                attackrange
                0x00074348                floatok
                0x0007434c                tmx
                0x00074350                tmceilingz
                0x00074354                crushchange
                0x00074358                tmflags
                0x0007435c                la_damage
                0x00074360                secondslideline
                0x00074364                bombsource
                0x00074368                linetarget
                0x0007436c                bombdamage
                0x00074370                bombspot
                0x00074374                shootz
                0x00074378                numspechit
                0x0007437c                spechit
                0x000743cc                tmy
                0x000743d0                aimslope
                0x000743d4                tmdropoffz
                0x000743d8                tmxmove
                0x000743dc                ceilingline
                0x000743e0                tmymove
                0x000743e4                tmfloorz
                0x000743e8                bestslideline
                0x000743ec                tmbbox
 COMMON         0x000743fc      0x908 build/p_maputl.o
                0x000743fc                intercepts
                0x00074cd8                earlyout
                0x00074cdc                ptflags
                0x00074ce0                intercept_p
                0x00074ce4                openrange
                0x00074ce8                lowfloor
                0x00074cec                opentop
                0x00074cf0                trace
                0x00074d00                openbottom
 COMMON         0x00074d04      0x70c build/p_mobj.o
                0x00074d04                itemrespawntime
                0x00074f04                iquehead
                0x00074f08                itemrespawnque
                0x00075408                iquetail
                0x0007540c                test
 COMMON         0x00075410       0x78 build/p_plats.o
                0x00075410                activeplats
 COMMON         0x00075488        0xc build/p_pspr.o
                0x00075488                swingy
                0x0007548c                swingx
                0x00075490                bulletslope
 COMMON         0x00075494       0x10 build/p_saveg.o
                0x00075494                savegame_error
                0x00075498                save_stream
                0x0007549c                savegamelength
                0x000754a0                specials_e
 COMMON         0x000754a4       0xe8 build/p_setup.o
                0x000754a4                bmaporgy
                0x000754a8                segs
                0x000754ac                deathmatch_p
                0x000754b0                numsubsectors
                0x000754b4                deathmatchstarts
                0x00075518                numsides
                0x0007551c                blockmaplump
                0x00075520                sides
                0x00075524                subsectors
                0x00075528                numlines
                0x0007552c                playerstarts
                0x00075554                nodes
                0x00075558                bmaporgx
                0x0007555c                numnodes
                0x00075560                vertexes
                0x00075564                blocklinks
                0x00075568                blockmap
                0x0007556c                numsectors
                0x00075570                bmapheight
                0x00075574                bmapwidth
                0x00075578                numsegs
                0x0007557c                numvertexes
                0x00075580                lines
                0x00075584                sectors
                0x00075588                rejectmatrix
 COMMON         0x0007558c       0x2c build/p_sight.o
                0x0007558c                sightcounts
                0x00075594                bottomslope
                0x00075598                t2x
                0x0007559c                strace
                0x000755ac                topslope
                0x000755b0                t2y
                0x000755b4                sightzstart
 COMMON         0x000755b8      0x390 build/p_spec.o
                0x000755b8                levelTimeCount
                0x000755bc                numlinespecials
                0x000755c0                linespeciallist
                0x000756c0                lastanim
                0x000756c4                levelTimer
                0x000756c8                anims
 COMMON         0x00075948      0x2d4 build/p_switch.o
                0x00075948                switchlist
                0x00075ad8                numswitches
                0x00075adc                buttonlist
 COMMON         0x00075c1c       0x10 build/p_tick.o
                0x00075c1c                leveltime
                0x00075c20                thinkercap
 COMMON         0x00075c2c        0x4 build/p_user.o
                0x00075c2c                onground
 COMMON         0x00075c30     0x311c build/r_bsp.o
                0x00075c30                curline
                0x00075c34                newend
                0x00075c38                drawsegs
                0x00078c38                linedef
                0x00078c3c                solidsegs
                0x00078d3c                backsector
                0x00078d40                frontsector
                0x00078d44                ds_p
                0x00078d48                sidedef
 COMMON         0x00078d4c       0x6c build/r_data.o
                0x00078d4c                lastpatch
                0x00078d50                firstflat
                0x00078d54                texturecolumnlump
                0x00078d58                numtextures
                0x00078d5c                texturecompositesize
                0x00078d60                numspritelumps
                0x00078d64                textures_hashtable
                0x00078d68                firstspritelump
                0x00078d6c                numpatches
                0x00078d70                colormaps
                0x00078d74                spritememory
                0x00078d78                firstpatch
                0x00078d7c                texturetranslation
                0x00078d80                spritetopoffset
                0x00078d84                flatmemory
                0x00078d88                spriteoffset
                0x00078d8c                texturecomposite
                0x00078d90                texturememory
                0x00078d94                texturecolumnofs
                0x00078d98                numflats
                0x00078d9c                lastflat
                0x00078da0                spritewidth
                0x00078da4                texturewidthmask
                0x00078da8                flattranslation
                0x00078dac                lastspritelump
                0x00078db0                textures
                0x00078db4                textureheight
 COMMON         0x00078db8     0x21e8 build/r_draw.o
                0x00078db8                dccount
                0x00078dbc                ds_y
                0x00078dc0                ds_x2
                0x00078dc4                scaledviewwidth
                0x00078dc8                dc_x
                0x00078dcc                ds_ystep
                0x00078dd0                ylookup
                0x00079ad0                ds_yfrac
                0x00079ad4                ds_colormap
                0x00079ad8                dc_iscale
                0x00079adc                dc_colormap
                0x00079ae0                viewheight
                0x00079ae4                viewwindowy
                0x00079ae8                viewimage
                0x00079aec                dc_texturemid
                0x00079af0                dc_source
                0x00079af4                columnofs
                0x0007ac74                translations
                0x0007af74                viewwidth
                0x0007af78                translationtables
                0x0007af7c                ds_x1
                0x0007af80                ds_xstep
                0x0007af84                dscount
                0x0007af88                dc_yl
                0x0007af8c                dc_yh
                0x0007af90                ds_source
                0x0007af94                dc_translation
                0x0007af98                viewwindowx
                0x0007af9c                ds_xfrac
 COMMON         0x0007afa0     0x7238 build/r_main.o
                0x0007afa0                extralight
                0x0007afa4                linecount
                0x0007afa8                centerxfrac
                0x0007afac                viewangleoffset
                0x0007afb0                colfunc
                0x0007afb4                transcolfunc
                0x0007afb8                basecolfunc
                0x0007afbc                detailshift
                0x0007afc0                viewplayer
                0x0007afc4                loopcount
                0x0007afc8                projection
                0x0007afcc                centery
                0x0007afd0                setsizeneeded
                0x0007afd4                viewy
                0x0007afd8                scalelight
                0x0007bbd8                viewangletox
                0x0007fbd8                viewsin
                0x0007fbdc                scalelightfixed
                0x0007fc9c                setblocks
                0x0007fca0                centeryfrac
                0x0007fca4                setdetail
                0x0007fca8                viewcos
                0x0007fcac                zlight
                0x00081cac                xtoviewangle
                0x000821b0                viewangle
                0x000821b4                centerx
                0x000821b8                clipangle
                0x000821bc                fixedcolormap
                0x000821c0                spanfunc
                0x000821c4                sscount
                0x000821c8                viewx
                0x000821cc                viewz
                0x000821d0                framecount
                0x000821d4                fuzzcolfunc
 COMMON         0x000821d8    0x20c08 build/r_plane.o
                0x000821d8                cachedheight
                0x000824f8                visplanes
                0x000970f8                floorplane
                0x000970fc                baseyscale
                0x00097100                yslope
                0x00097420                spanstop
                0x00097740                floorfunc
                0x00097744                spanstart
                0x00097a64                lastopening
                0x00097a68                cacheddistance
                0x00097d88                lastvisplane
                0x00097d8c                floorclip
                0x0009800c                ceilingfunc
                0x00098010                cachedystep
                0x00098330                openings
                0x000a2330                basexscale
                0x000a2334                planezlight
                0x000a2338                planeheight
                0x000a233c                ceilingplane
                0x000a2340                distscale
                0x000a2840                cachedxstep
                0x000a2b60                ceilingclip
 COMMON         0x000a2de0       0x84 build/r_segs.o
                0x000a2de0                bottomtexture
                0x000a2de4                rw_x
                0x000a2de8                rw_angle1
                0x000a2dec                topfrac
                0x000a2df0                pixhigh
                0x000a2df4                rw_distance
                0x000a2df8                rw_scale
                0x000a2dfc                rw_normalangle
                0x000a2e00                rw_scalestep
                0x000a2e04                rw_midtexturemid
                0x000a2e08                rw_toptexturemid
                0x000a2e0c                maskedtexture
                0x000a2e10                worldlow
                0x000a2e14                rw_bottomtexturemid
                0x000a2e18                markfloor
                0x000a2e1c                maskedtexturecol
                0x000a2e20                topstep
                0x000a2e24                rw_stopx
                0x000a2e28                pixlowstep
                0x000a2e2c                toptexture
                0x000a2e30                pixlow
                0x000a2e34                segtextured
                0x000a2e38                markceiling
                0x000a2e3c                walllights
                0x000a2e40                bottomfrac
                0x000a2e44                midtexture
                0x000a2e48                rw_offset
                0x000a2e4c                worldbottom
                0x000a2e50                rw_centerangle
                0x000a2e54                pixhighstep
                0x000a2e58                bottomstep
                0x000a2e5c                worldhigh
                0x000a2e60                worldtop
 COMMON         0x000a2e64        0xc build/r_sky.o
                0x000a2e64                skytexturemid
                0x000a2e68                skytexture
                0x000a2e6c                skyflatnum
 COMMON         0x000a2e70     0x26d8 build/r_things.o
                0x000a2e70                mceilingclip
                0x000a2e74                sprtopscreen
                0x000a2e78                newvissprite
                0x000a2e7c                screenheightarray
                0x000a30fc                spryscale
                0x000a3100                spritelights
                0x000a3104                maxframe
                0x000a3108                sprtemp
                0x000a3434                sprites
                0x000a3438                numsprites
                0x000a343c                pspriteiscale
                0x000a3440                vissprites
                0x000a5240                spritename
                0x000a5244                vsprsortedhead
                0x000a5280                negonearray
                0x000a5500                overflowsprite
                0x000a553c                mfloorclip
                0x000a5540                pspritescale
                0x000a5544                vissprite_p
 COMMON         0x000a5548        0x4 build/st_lib.o
                0x000a5548                sttminus
 COMMON         0x000a554c        0x4 build/st_stuff.o
                0x000a554c                st_backing_screen
 COMMON         0x000a5550       0x10 build/v_video.o
                0x000a5550                dirtybox
 COMMON         0x000a5560        0x4 build/w_wad.o
                0x000a5560                lumpinfo
 COMMON         0x000a5564        0x4 build/z_zone.o
                0x000a5564                mainzone
 COMMON         0x000a5568        0x4 build/i_video.o
                0x000a5568                screenvisible
                0x000a556c                . = ALIGN ((. != 0x0)?0x4:0x1)
                0x000a556c                _bss_end__ = .
                0x000a556c                __bss_end__ = .
                0x000a556c                . = ALIGN (0x4)
                0x000a556c                . = SEGMENT_START ("ldata-segment", .)
                0x000a556c                . = ALIGN (0x4)
                0x000a556c                __end__ = .
                0x000a556c                _end = .
                0x000a556c                PROVIDE (end, .)
                0x000a556c                . = DATA_SEGMENT_END (.)

.stab
 *(.stab)

.stabstr
 *(.stabstr)

.stab.excl
 *(.stab.excl)

.stab.exclstr
 *(.stab.exclstr)

.stab.index
 *(.stab.index)

.stab.indexstr
 *(.stab.indexstr)

.comment        0x00000000       0x80
 *(.comment)
 .comment       0x00000000       0x32 /usr/bin/../lib/gcc/arm-linux-gnueabihf/4.8/crtbegin.o
                                 0x33 (size before relaxing)
 .comment       0x00000032       0x4e build/button.o
                                 0x4f (size before relaxing)
 .comment       0x00000000       0x4f build/fnd.o
 .comment       0x00000000       0x4f build/lcdtext.o
 .comment       0x00000000       0x4f build/led.o
 .comment       0x00000000       0x4f build/colorled.o
 .comment       0x00000000       0x4f build/accelMagGyro.o
 .comment       0x00000000       0x4f build/dummy.o
 .comment       0x00000000       0x4f build/am_map.o
 .comment       0x00000000       0x4f build/doomstat.o
 .comment       0x00000000       0x4f build/dstrings.o
 .comment       0x00000000       0x4f build/d_event.o
 .comment       0x00000000       0x4f build/d_items.o
 .comment       0x00000000       0x4f build/d_iwad.o
 .comment       0x00000000       0x4f build/d_loop.o
 .comment       0x00000000       0x4f build/d_main.o
 .comment       0x00000000       0x4f build/d_mode.o
 .comment       0x00000000       0x4f build/d_net.o
 .comment       0x00000000       0x4f build/f_finale.o
 .comment       0x00000000       0x4f build/f_wipe.o
 .comment       0x00000000       0x4f build/g_game.o
 .comment       0x00000000       0x4f build/hu_lib.o
 .comment       0x00000000       0x4f build/hu_stuff.o
 .comment       0x00000000       0x4f build/info.o
 .comment       0x00000000       0x4f build/i_endoom.o
 .comment       0x00000000       0x4f build/i_joystick.o
 .comment       0x00000000       0x4f build/i_sound.o
 .comment       0x00000000       0x4f build/i_system.o
 .comment       0x00000000       0x4f build/i_timer.o
 .comment       0x00000000       0x4f build/m_argv.o
 .comment       0x00000000       0x4f build/m_bbox.o
 .comment       0x00000000       0x4f build/m_cheat.o
 .comment       0x00000000       0x4f build/m_config.o
 .comment       0x00000000       0x4f build/m_controls.o
 .comment       0x00000000       0x4f build/m_fixed.o
 .comment       0x00000000       0x4f build/m_menu.o
 .comment       0x00000000       0x4f build/m_misc.o
 .comment       0x00000000       0x4f build/m_random.o
 .comment       0x00000000       0x4f build/p_ceilng.o
 .comment       0x00000000       0x4f build/p_doors.o
 .comment       0x00000000       0x4f build/p_enemy.o
 .comment       0x00000000       0x4f build/p_floor.o
 .comment       0x00000000       0x4f build/p_inter.o
 .comment       0x00000000       0x4f build/p_lights.o
 .comment       0x00000000       0x4f build/p_map.o
 .comment       0x00000000       0x4f build/p_maputl.o
 .comment       0x00000000       0x4f build/p_mobj.o
 .comment       0x00000000       0x4f build/p_plats.o
 .comment       0x00000000       0x4f build/p_pspr.o
 .comment       0x00000000       0x4f build/p_saveg.o
 .comment       0x00000000       0x4f build/p_setup.o
 .comment       0x00000000       0x4f build/p_sight.o
 .comment       0x00000000       0x4f build/p_spec.o
 .comment       0x00000000       0x4f build/p_switch.o
 .comment       0x00000000       0x4f build/p_telept.o
 .comment       0x00000000       0x4f build/p_tick.o
 .comment       0x00000000       0x4f build/p_user.o
 .comment       0x00000000       0x4f build/r_bsp.o
 .comment       0x00000000       0x4f build/r_data.o
 .comment       0x00000000       0x4f build/r_draw.o
 .comment       0x00000000       0x4f build/r_main.o
 .comment       0x00000000       0x4f build/r_plane.o
 .comment       0x00000000       0x4f build/r_segs.o
 .comment       0x00000000       0x4f build/r_sky.o
 .comment       0x00000000       0x4f build/r_things.o
 .comment       0x00000000       0x4f build/sha1.o
 .comment       0x00000000       0x4f build/sounds.o
 .comment       0x00000000       0x4f build/statdump.o
 .comment       0x00000000       0x4f build/st_lib.o
 .comment       0x00000000       0x4f build/st_stuff.o
 .comment       0x00000000       0x4f build/s_sound.o
 .comment       0x00000000       0x4f build/tables.o
 .comment       0x00000000       0x4f build/v_video.o
 .comment       0x00000000       0x4f build/wi_stuff.o
 .comment       0x00000000       0x4f build/w_checksum.o
 .comment       0x00000000       0x4f build/w_file.o
 .comment       0x00000000       0x4f build/w_main.o
 .comment       0x00000000       0x4f build/w_wad.o
 .comment       0x00000000       0x4f build/z_zone.o
 .comment       0x00000000       0x4f build/w_file_stdc.o
 .comment       0x00000000       0x4f build/i_input.o
 .comment       0x00000000       0x4f build/i_video.o
 .comment       0x00000000       0x4f build/doomgeneric.o
 .comment       0x00000000       0x4f build/doomgeneric_xlib.o
 .comment       0x00000000       0x33 /usr/lib/arm-linux-gnueabihf/libc_nonshared.a(elf-init.oS)
 .comment       0x00000000       0x33 /usr/bin/../lib/gcc/arm-linux-gnueabihf/4.8/libgcc.a(bpabi.o)
 .comment       0x00000000       0x33 /usr/bin/../lib/gcc/arm-linux-gnueabihf/4.8/libgcc.a(_divdi3.o)
 .comment       0x00000000       0x33 /usr/bin/../lib/gcc/arm-linux-gnueabihf/4.8/libgcc.a(_udivdi3.o)
 .comment       0x00000000       0x33 /usr/bin/../lib/gcc/arm-linux-gnueabihf/4.8/crtend.o

.ARM.attributes
                0x00000000       0x35
 .ARM.attributes
                0x00000000       0x35 /usr/bin/../lib/gcc/arm-linux-gnueabihf/4.8/../../../arm-linux-gnueabihf/crt1.o
 .ARM.attributes
                0x00000035       0x27 /usr/bin/../lib/gcc/arm-linux-gnueabihf/4.8/../../../arm-linux-gnueabihf/crti.o
 .ARM.attributes
                0x0000005c       0x35 /usr/bin/../lib/gcc/arm-linux-gnueabihf/4.8/crtbegin.o
 .ARM.attributes
                0x00000091       0x31 build/button.o
 .ARM.attributes
                0x000000c2       0x31 build/fnd.o
 .ARM.attributes
                0x000000f3       0x31 build/lcdtext.o
 .ARM.attributes
                0x00000124       0x31 build/led.o
 .ARM.attributes
                0x00000155       0x31 build/colorled.o
 .ARM.attributes
                0x00000186       0x31 build/accelMagGyro.o
 .ARM.attributes
                0x000001b7       0x31 build/dummy.o
 .ARM.attributes
                0x000001e8       0x31 build/am_map.o
 .ARM.attributes
                0x00000219       0x31 build/doomstat.o
 .ARM.attributes
                0x0000024a       0x31 build/dstrings.o
 .ARM.attributes
                0x0000027b       0x31 build/d_event.o
 .ARM.attributes
                0x000002ac       0x31 build/d_items.o
 .ARM.attributes
                0x000002dd       0x31 build/d_iwad.o
 .ARM.attributes
                0x0000030e       0x31 build/d_loop.o
 .ARM.attributes
                0x0000033f       0x31 build/d_main.o
 .ARM.attributes
                0x00000370       0x31 build/d_mode.o
 .ARM.attributes
                0x000003a1       0x31 build/d_net.o
 .ARM.attributes
                0x000003d2       0x31 build/f_finale.o
 .ARM.attributes
                0x00000403       0x31 build/f_wipe.o
 .ARM.attributes
                0x00000434       0x31 build/g_game.o
 .ARM.attributes
                0x00000465       0x31 build/hu_lib.o
 .ARM.attributes
                0x00000496       0x31 build/hu_stuff.o
 .ARM.attributes
                0x000004c7       0x31 build/info.o
 .ARM.attributes
                0x000004f8       0x31 build/i_endoom.o
 .ARM.attributes
                0x00000529       0x31 build/i_joystick.o
 .ARM.attributes
                0x0000055a       0x31 build/i_sound.o
 .ARM.attributes
                0x0000058b       0x31 build/i_system.o
 .ARM.attributes
                0x000005bc       0x31 build/i_timer.o
 .ARM.attributes
                0x000005ed       0x31 build/m_argv.o
 .ARM.attributes
                0x0000061e       0x31 build/m_bbox.o
 .ARM.attributes
                0x0000064f       0x31 build/m_cheat.o
 .ARM.attributes
                0x00000680       0x31 build/m_config.o
 .ARM.attributes
                0x000006b1       0x31 build/m_controls.o
 .ARM.attributes
                0x000006e2       0x31 build/m_fixed.o
 .ARM.attributes
                0x00000713       0x31 build/m_menu.o
 .ARM.attributes
                0x00000744       0x31 build/m_misc.o
 .ARM.attributes
                0x00000775       0x31 build/m_random.o
 .ARM.attributes
                0x000007a6       0x31 build/p_ceilng.o
 .ARM.attributes
                0x000007d7       0x31 build/p_doors.o
 .ARM.attributes
                0x00000808       0x31 build/p_enemy.o
 .ARM.attributes
                0x00000839       0x31 build/p_floor.o
 .ARM.attributes
                0x0000086a       0x31 build/p_inter.o
 .ARM.attributes
                0x0000089b       0x31 build/p_lights.o
 .ARM.attributes
                0x000008cc       0x31 build/p_map.o
 .ARM.attributes
                0x000008fd       0x31 build/p_maputl.o
 .ARM.attributes
                0x0000092e       0x31 build/p_mobj.o
 .ARM.attributes
                0x0000095f       0x31 build/p_plats.o
 .ARM.attributes
                0x00000990       0x31 build/p_pspr.o
 .ARM.attributes
                0x000009c1       0x31 build/p_saveg.o
 .ARM.attributes
                0x000009f2       0x31 build/p_setup.o
 .ARM.attributes
                0x00000a23       0x31 build/p_sight.o
 .ARM.attributes
                0x00000a54       0x31 build/p_spec.o
 .ARM.attributes
                0x00000a85       0x31 build/p_switch.o
 .ARM.attributes
                0x00000ab6       0x31 build/p_telept.o
 .ARM.attributes
                0x00000ae7       0x31 build/p_tick.o
 .ARM.attributes
                0x00000b18       0x31 build/p_user.o
 .ARM.attributes
                0x00000b49       0x31 build/r_bsp.o
 .ARM.attributes
                0x00000b7a       0x31 build/r_data.o
 .ARM.attributes
                0x00000bab       0x31 build/r_draw.o
 .ARM.attributes
                0x00000bdc       0x31 build/r_main.o
 .ARM.attributes
                0x00000c0d       0x31 build/r_plane.o
 .ARM.attributes
                0x00000c3e       0x31 build/r_segs.o
 .ARM.attributes
                0x00000c6f       0x31 build/r_sky.o
 .ARM.attributes
                0x00000ca0       0x31 build/r_things.o
 .ARM.attributes
                0x00000cd1       0x31 build/sha1.o
 .ARM.attributes
                0x00000d02       0x31 build/sounds.o
 .ARM.attributes
                0x00000d33       0x31 build/statdump.o
 .ARM.attributes
                0x00000d64       0x31 build/st_lib.o
 .ARM.attributes
                0x00000d95       0x31 build/st_stuff.o
 .ARM.attributes
                0x00000dc6       0x31 build/s_sound.o
 .ARM.attributes
                0x00000df7       0x31 build/tables.o
 .ARM.attributes
                0x00000e28       0x31 build/v_video.o
 .ARM.attributes
                0x00000e59       0x31 build/wi_stuff.o
 .ARM.attributes
                0x00000e8a       0x31 build/w_checksum.o
 .ARM.attributes
                0x00000ebb       0x31 build/w_file.o
 .ARM.attributes
                0x00000eec       0x31 build/w_main.o
 .ARM.attributes
                0x00000f1d       0x31 build/w_wad.o
 .ARM.attributes
                0x00000f4e       0x31 build/z_zone.o
 .ARM.attributes
                0x00000f7f       0x31 build/w_file_stdc.o
 .ARM.attributes
                0x00000fb0       0x31 build/i_input.o
 .ARM.attributes
                0x00000fe1       0x31 build/i_video.o
 .ARM.attributes
                0x00001012       0x31 build/doomgeneric.o
 .ARM.attributes
                0x00001043       0x31 build/doomgeneric_xlib.o
 .ARM.attributes
                0x00001074       0x37 /usr/lib/arm-linux-gnueabihf/libc_nonshared.a(elf-init.oS)
 .ARM.attributes
                0x000010ab       0x21 /usr/bin/../lib/gcc/arm-linux-gnueabihf/4.8/libgcc.a(_udivsi3.o)
 .ARM.attributes
                0x000010cc       0x21 /usr/bin/../lib/gcc/arm-linux-gnueabihf/4.8/libgcc.a(_divsi3.o)
 .ARM.attributes
                0x000010ed       0x21 /usr/bin/../lib/gcc/arm-linux-gnueabihf/4.8/libgcc.a(_umodsi3.o)
 .ARM.attributes
                0x0000110e       0x21 /usr/bin/../lib/gcc/arm-linux-gnueabihf/4.8/libgcc.a(_modsi3.o)
 .ARM.attributes
                0x0000112f       0x21 /usr/bin/../lib/gcc/arm-linux-gnueabihf/4.8/libgcc.a(_aeabi_ldivmod.o)
 .ARM.attributes
                0x00001150       0x21 /usr/bin/../lib/gcc/arm-linux-gnueabihf/4.8/libgcc.a(_dvmd_lnx.o)
 .ARM.attributes
                0x00001171       0x35 /usr/bin/../lib/gcc/arm-linux-gnueabihf/4.8/libgcc.a(bpabi.o)
 .ARM.attributes
                0x000011a6       0x35 /usr/bin/../lib/gcc/arm-linux-gnueabihf/4.8/libgcc.a(_divdi3.o)
 .ARM.attributes
                0x000011db       0x35 /usr/bin/../lib/gcc/arm-linux-gnueabihf/4.8/libgcc.a(_udivdi3.o)
 .ARM.attributes
                0x00001210       0x35 /usr/bin/../lib/gcc/arm-linux-gnueabihf/4.8/crtend.o
 .ARM.attributes
                0x00001245       0x27 /usr/bin/../lib/gcc/arm-linux-gnueabihf/4.8/../../../arm-linux-gnueabihf/crtn.o

.debug
 *(.debug)

.line
 *(.line)

.debug_srcinfo
 *(.debug_srcinfo)

.debug_sfnames
 *(.debug_sfnames)

.debug_aranges  0x00000000     0x2100
 *(.debug_aranges)
 .debug_aranges
                0x00000000       0x38 build/button.o
 .debug_aranges
                0x00000038       0x20 build/fnd.o
 .debug_aranges
                0x00000058       0x30 build/lcdtext.o
 .debug_aranges
                0x00000088       0x40 build/led.o
 .debug_aranges
                0x000000c8       0x20 build/colorled.o
 .debug_aranges
                0x000000e8       0x28 build/accelMagGyro.o
 .debug_aranges
                0x00000110       0x28 build/dummy.o
 .debug_aranges
                0x00000138      0x168 build/am_map.o
 .debug_aranges
                0x000002a0       0x38 build/doomstat.o
 .debug_aranges
                0x000002d8       0x20 build/dstrings.o
 .debug_aranges
                0x000002f8       0x38 build/d_event.o
 .debug_aranges
                0x00000330       0x20 build/d_items.o
 .debug_aranges
                0x00000350       0x38 build/d_iwad.o
 .debug_aranges
                0x00000388       0xa8 build/d_loop.o
 .debug_aranges
                0x00000430      0x100 build/d_main.o
 .debug_aranges
                0x00000530       0x28 build/d_mode.o
 .debug_aranges
                0x00000558       0x38 build/d_net.o
 .debug_aranges
                0x00000590       0x88 build/f_finale.o
 .debug_aranges
                0x00000618       0x48 build/f_wipe.o
 .debug_aranges
                0x00000660      0x260 build/g_game.o
 .debug_aranges
                0x000008c0       0x20 build/hu_lib.o
 .debug_aranges
                0x000008e0       0xc8 build/hu_stuff.o
 .debug_aranges
                0x000009a8       0x20 build/info.o
 .debug_aranges
                0x000009c8       0x20 build/i_endoom.o
 .debug_aranges
                0x000009e8       0x50 build/i_joystick.o
 .debug_aranges
                0x00000a38       0x48 build/i_sound.o
 .debug_aranges
                0x00000a80       0x48 build/i_system.o
 .debug_aranges
                0x00000ac8       0x28 build/i_timer.o
 .debug_aranges
                0x00000af0       0x30 build/m_argv.o
 .debug_aranges
                0x00000b20       0x20 build/m_bbox.o
 .debug_aranges
                0x00000b40       0x20 build/m_cheat.o
 .debug_aranges
                0x00000b60       0x48 build/m_config.o
 .debug_aranges
                0x00000ba8       0x38 build/m_controls.o
 .debug_aranges
                0x00000be0       0x20 build/m_fixed.o
 .debug_aranges
                0x00000c00      0x170 build/m_menu.o
 .debug_aranges
                0x00000d70       0x20 build/m_misc.o
 .debug_aranges
                0x00000d90       0x30 build/m_random.o
 .debug_aranges
                0x00000dc0       0x28 build/p_ceilng.o
 .debug_aranges
                0x00000de8       0x20 build/p_doors.o
 .debug_aranges
                0x00000e08       0x70 build/p_enemy.o
 .debug_aranges
                0x00000e78       0x20 build/p_floor.o
 .debug_aranges
                0x00000e98       0x28 build/p_inter.o
 .debug_aranges
                0x00000ec0       0x20 build/p_lights.o
 .debug_aranges
                0x00000ee0      0x120 build/p_map.o
 .debug_aranges
                0x00001000       0x70 build/p_maputl.o
 .debug_aranges
                0x00001070       0x50 build/p_mobj.o
 .debug_aranges
                0x000010c0       0x28 build/p_plats.o
 .debug_aranges
                0x000010e8       0x38 build/p_pspr.o
 .debug_aranges
                0x00001120       0x58 build/p_saveg.o
 .debug_aranges
                0x00001178       0xf8 build/p_setup.o
 .debug_aranges
                0x00001270       0x58 build/p_sight.o
 .debug_aranges
                0x000012c8       0x68 build/p_spec.o
 .debug_aranges
                0x00001330       0x40 build/p_switch.o
 .debug_aranges
                0x00001370       0x20 build/p_telept.o
 .debug_aranges
                0x00001390       0x30 build/p_tick.o
 .debug_aranges
                0x000013c0       0x28 build/p_user.o
 .debug_aranges
                0x000013e8       0x70 build/r_bsp.o
 .debug_aranges
                0x00001458       0xf8 build/r_data.o
 .debug_aranges
                0x00001550      0x120 build/r_draw.o
 .debug_aranges
                0x00001670      0x138 build/r_main.o
 .debug_aranges
                0x000017a8       0xd0 build/r_plane.o
 .debug_aranges
                0x00001878      0x128 build/r_segs.o
 .debug_aranges
                0x000019a0       0x38 build/r_sky.o
 .debug_aranges
                0x000019d8       0xc8 build/r_things.o
 .debug_aranges
                0x00001aa0       0x20 build/sha1.o
 .debug_aranges
                0x00001ac0       0x20 build/sounds.o
 .debug_aranges
                0x00001ae0       0x30 build/statdump.o
 .debug_aranges
                0x00001b10       0x28 build/st_lib.o
 .debug_aranges
                0x00001b38      0x160 build/st_stuff.o
 .debug_aranges
                0x00001c98       0x40 build/s_sound.o
 .debug_aranges
                0x00001cd8       0x30 build/tables.o
 .debug_aranges
                0x00001d08       0x40 build/v_video.o
 .debug_aranges
                0x00001d48      0x1a0 build/wi_stuff.o
 .debug_aranges
                0x00001ee8       0x30 build/w_checksum.o
 .debug_aranges
                0x00001f18       0x20 build/w_file.o
 .debug_aranges
                0x00001f38       0x20 build/w_main.o
 .debug_aranges
                0x00001f58       0x40 build/w_wad.o
 .debug_aranges
                0x00001f98       0x28 build/z_zone.o
 .debug_aranges
                0x00001fc0       0x28 build/w_file_stdc.o
 .debug_aranges
                0x00001fe8       0x48 build/i_input.o
 .debug_aranges
                0x00002030       0x48 build/i_video.o
 .debug_aranges
                0x00002078       0x28 build/doomgeneric.o
 .debug_aranges
                0x000020a0       0x60 build/doomgeneric_xlib.o

.debug_pubnames
                0x00000000     0x73aa
 *(.debug_pubnames)
 .debug_pubnames
                0x00000000       0x6e build/button.o
 .debug_pubnames
                0x0000006e       0x53 build/fnd.o
 .debug_pubnames
                0x000000c1       0x4c build/lcdtext.o
 .debug_pubnames
                0x0000010d       0x6c build/led.o
 .debug_pubnames
                0x00000179       0x87 build/colorled.o
 .debug_pubnames
                0x00000200       0x47 build/accelMagGyro.o
 .debug_pubnames
                0x00000247       0x4e build/dummy.o
 .debug_pubnames
                0x00000295      0x309 build/am_map.o
 .debug_pubnames
                0x0000059e       0x64 build/doomstat.o
 .debug_pubnames
                0x00000602       0x34 build/dstrings.o
 .debug_pubnames
                0x00000636       0x31 build/d_event.o
 .debug_pubnames
                0x00000667       0x21 build/d_items.o
 .debug_pubnames
                0x00000688      0x120 build/d_iwad.o
 .debug_pubnames
                0x000007a8      0x174 build/d_loop.o
 .debug_pubnames
                0x0000091c      0x2f4 build/d_main.o
 .debug_pubnames
                0x00000c10       0x93 build/d_mode.o
 .debug_pubnames
                0x00000ca3       0xa2 build/d_net.o
 .debug_pubnames
                0x00000d45      0x1a1 build/f_finale.o
 .debug_pubnames
                0x00000ee6       0xe5 build/f_wipe.o
 .debug_pubnames
                0x00000fcb      0x658 build/g_game.o
 .debug_pubnames
                0x00001623      0x1e5 build/hu_lib.o
 .debug_pubnames
                0x00001808      0x124 build/hu_stuff.o
 .debug_pubnames
                0x0000192c       0x37 build/info.o
 .debug_pubnames
                0x00001963       0x1f build/i_endoom.o
 .debug_pubnames
                0x00001982       0x6d build/i_joystick.o
 .debug_pubnames
                0x000019ef      0x255 build/i_sound.o
 .debug_pubnames
                0x00001c44      0x10b build/i_system.o
 .debug_pubnames
                0x00001d4f       0x69 build/i_timer.o
 .debug_pubnames
                0x00001db8       0xa5 build/m_argv.o
 .debug_pubnames
                0x00001e5d       0x30 build/m_bbox.o
 .debug_pubnames
                0x00001e8d       0x36 build/m_cheat.o
 .debug_pubnames
                0x00001ec3      0x1a6 build/m_config.o
 .debug_pubnames
                0x00002069      0x881 build/m_controls.o
 .debug_pubnames
                0x000028ea       0x2c build/m_fixed.o
 .debug_pubnames
                0x00002916      0x73c build/m_menu.o
 .debug_pubnames
                0x00003052      0x16b build/m_misc.o
 .debug_pubnames
                0x000031bd       0x59 build/m_random.o
 .debug_pubnames
                0x00003216       0xaf build/p_ceilng.o
 .debug_pubnames
                0x000032c5       0x90 build/p_doors.o
 .debug_pubnames
                0x00003355      0x4f1 build/p_enemy.o
 .debug_pubnames
                0x00003846       0x54 build/p_floor.o
 .debug_pubnames
                0x0000389a       0xc1 build/p_inter.o
 .debug_pubnames
                0x0000395b       0xf3 build/p_lights.o
 .debug_pubnames
                0x00003a4e      0x34e build/p_map.o
 .debug_pubnames
                0x00003d9c      0x211 build/p_maputl.o
 .debug_pubnames
                0x00003fad      0x1a4 build/p_mobj.o
 .debug_pubnames
                0x00004151       0x92 build/p_plats.o
 .debug_pubnames
                0x000041e3      0x220 build/p_pspr.o
 .debug_pubnames
                0x00004403      0x4fa build/p_saveg.o
 .debug_pubnames
                0x000048fd      0x280 build/p_setup.o
 .debug_pubnames
                0x00004b7d       0xcc build/p_sight.o
 .debug_pubnames
                0x00004c49      0x23e build/p_spec.o
 .debug_pubnames
                0x00004e87       0xa9 build/p_switch.o
 .debug_pubnames
                0x00004f30       0x22 build/p_telept.o
 .debug_pubnames
                0x00004f52       0x9c build/p_tick.o
 .debug_pubnames
                0x00004fee       0x71 build/p_user.o
 .debug_pubnames
                0x0000505f      0x132 build/r_bsp.o
 .debug_pubnames
                0x00005191      0x320 build/r_data.o
 .debug_pubnames
                0x000054b1      0x2d6 build/r_draw.o
 .debug_pubnames
                0x00005787      0x368 build/r_main.o
 .debug_pubnames
                0x00005aef      0x1d4 build/r_plane.o
 .debug_pubnames
                0x00005cc3      0x256 build/r_segs.o
 .debug_pubnames
                0x00005f19       0x53 build/r_sky.o
 .debug_pubnames
                0x00005f6c      0x25a build/r_things.o
 .debug_pubnames
                0x000061c6       0x78 build/sha1.o
 .debug_pubnames
                0x0000623e       0x28 build/sounds.o
 .debug_pubnames
                0x00006266       0x2c build/statdump.o
 .debug_pubnames
                0x00006292       0xf2 build/st_lib.o
 .debug_pubnames
                0x00006384      0x285 build/st_stuff.o
 .debug_pubnames
                0x00006609      0x167 build/s_sound.o
 .debug_pubnames
                0x00006770       0x69 build/tables.o
 .debug_pubnames
                0x000067d9      0x1fd build/v_video.o
 .debug_pubnames
                0x000069d6      0x30c build/wi_stuff.o
 .debug_pubnames
                0x00006ce2       0x47 build/w_checksum.o
 .debug_pubnames
                0x00006d29       0x3c build/w_file.o
 .debug_pubnames
                0x00006d65       0x29 build/w_main.o
 .debug_pubnames
                0x00006d8e      0x13a build/w_wad.o
 .debug_pubnames
                0x00006ec8       0xd5 build/z_zone.o
 .debug_pubnames
                0x00006f9d       0x5d build/w_file_stdc.o
 .debug_pubnames
                0x00006ffa       0x9a build/i_input.o
 .debug_pubnames
                0x00007094      0x235 build/i_video.o
 .debug_pubnames
                0x000072c9       0x3d build/doomgeneric.o
 .debug_pubnames
                0x00007306       0xa4 build/doomgeneric_xlib.o

.debug_info     0x00000000    0x7c8b6
 *(.debug_info .gnu.linkonce.wi.*)
 .debug_info    0x00000000      0x498 build/button.o
 .debug_info    0x00000498      0x354 build/fnd.o
 .debug_info    0x000007ec      0x151 build/lcdtext.o
 .debug_info    0x0000093d      0x1f5 build/led.o
 .debug_info    0x00000b32      0x25b build/colorled.o
 .debug_info    0x00000d8d      0x312 build/accelMagGyro.o
 .debug_info    0x0000109f       0x78 build/dummy.o
 .debug_info    0x00001117     0x3d16 build/am_map.o
 .debug_info    0x00004e2d      0x184 build/doomstat.o
 .debug_info    0x00004fb1       0x64 build/dstrings.o
 .debug_info    0x00005015      0x143 build/d_event.o
 .debug_info    0x00005158       0xe0 build/d_items.o
 .debug_info    0x00005238      0x61f build/d_iwad.o
 .debug_info    0x00005857      0x92e build/d_loop.o
 .debug_info    0x00006185      0xd8b build/d_main.o
 .debug_info    0x00006f10      0x340 build/d_mode.o
 .debug_info    0x00007250     0x2e36 build/d_net.o
 .debug_info    0x0000a086     0x303e build/f_finale.o
 .debug_info    0x0000d0c4      0x526 build/f_wipe.o
 .debug_info    0x0000d5ea     0x45da build/g_game.o
 .debug_info    0x00011bc4      0x87c build/hu_lib.o
 .debug_info    0x00012440     0x37b6 build/hu_stuff.o
 .debug_info    0x00015bf6     0x20c2 build/info.o
 .debug_info    0x00017cb8       0x64 build/i_endoom.o
 .debug_info    0x00017d1c      0x17e build/i_joystick.o
 .debug_info    0x00017e9a      0x7ad build/i_sound.o
 .debug_info    0x00018647      0x60b build/i_system.o
 .debug_info    0x00018c52      0x11a build/i_timer.o
 .debug_info    0x00018d6c      0x18b build/m_argv.o
 .debug_info    0x00018ef7       0xb1 build/m_bbox.o
 .debug_info    0x00018fa8      0x143 build/m_cheat.o
 .debug_info    0x000190eb      0x5cc build/m_config.o
 .debug_info    0x000196b7      0x864 build/m_controls.o
 .debug_info    0x00019f1b       0xca build/m_fixed.o
 .debug_info    0x00019fe5     0x1ed6 build/m_menu.o
 .debug_info    0x0001bebb      0xa01 build/m_misc.o
 .debug_info    0x0001c8bc       0xb7 build/m_random.o
 .debug_info    0x0001c973     0x32f5 build/p_ceilng.o
 .debug_info    0x0001fc68     0x335e build/p_doors.o
 .debug_info    0x00022fc6     0x43eb build/p_enemy.o
 .debug_info    0x000273b1     0x341d build/p_floor.o
 .debug_info    0x0002a7ce     0x390e build/p_inter.o
 .debug_info    0x0002e0dc     0x3188 build/p_lights.o
 .debug_info    0x00031264     0x3c94 build/p_map.o
 .debug_info    0x00034ef8     0x378f build/p_maputl.o
 .debug_info    0x00038687     0x383f build/p_mobj.o
 .debug_info    0x0003bec6     0x3332 build/p_plats.o
 .debug_info    0x0003f1f8     0x3ae2 build/p_pspr.o
 .debug_info    0x00042cda     0x4926 build/p_saveg.o
 .debug_info    0x00047600     0x3a31 build/p_setup.o
 .debug_info    0x0004b031     0x31f5 build/p_sight.o
 .debug_info    0x0004e226     0x3c4d build/p_spec.o
 .debug_info    0x00051e73     0x3358 build/p_switch.o
 .debug_info    0x000551cb     0x31d8 build/p_telept.o
 .debug_info    0x000583a3      0x1c8 build/p_tick.o
 .debug_info    0x0005856b     0x2fd5 build/p_user.o
 .debug_info    0x0005b540     0x3333 build/r_bsp.o
 .debug_info    0x0005e873      0xccb build/r_data.o
 .debug_info    0x0005f53e      0x8dc build/r_draw.o
 .debug_info    0x0005fe1a     0x3720 build/r_main.o
 .debug_info    0x0006353a      0x5cf build/r_plane.o
 .debug_info    0x00063b09     0x32cb build/r_segs.o
 .debug_info    0x00066dd4       0x6e build/r_sky.o
 .debug_info    0x00066e42     0x39b5 build/r_things.o
 .debug_info    0x0006a7f7      0x3c5 build/sha1.o
 .debug_info    0x0006abbc      0x16e build/sounds.o
 .debug_info    0x0006ad2a      0x1dd build/statdump.o
 .debug_info    0x0006af07      0x686 build/st_lib.o
 .debug_info    0x0006b58d     0x42b0 build/st_stuff.o
 .debug_info    0x0006f83d     0x38ee build/s_sound.o
 .debug_info    0x0007312b      0x155 build/tables.o
 .debug_info    0x00073280     0x11c8 build/v_video.o
 .debug_info    0x00074448     0x42e3 build/wi_stuff.o
 .debug_info    0x0007872b      0x378 build/w_checksum.o
 .debug_info    0x00078aa3      0x1fb build/w_file.o
 .debug_info    0x00078c9e       0xb2 build/w_main.o
 .debug_info    0x00078d50      0x78c build/w_wad.o
 .debug_info    0x000794dc      0x683 build/z_zone.o
 .debug_info    0x00079b5f      0x4c1 build/w_file_stdc.o
 .debug_info    0x0007a020      0x387 build/i_input.o
 .debug_info    0x0007a3a7      0x6c6 build/i_video.o
 .debug_info    0x0007aa6d       0x9e build/doomgeneric.o
 .debug_info    0x0007ab0b     0x1dab build/doomgeneric_xlib.o

.debug_abbrev   0x00000000     0x7e0a
 *(.debug_abbrev)
 .debug_abbrev  0x00000000      0x119 build/button.o
 .debug_abbrev  0x00000119       0xf2 build/fnd.o
 .debug_abbrev  0x0000020b       0xde build/lcdtext.o
 .debug_abbrev  0x000002e9       0xfd build/led.o
 .debug_abbrev  0x000003e6       0x8c build/colorled.o
 .debug_abbrev  0x00000472       0xb8 build/accelMagGyro.o
 .debug_abbrev  0x0000052a       0x5c build/dummy.o
 .debug_abbrev  0x00000586      0x26f build/am_map.o
 .debug_abbrev  0x000007f5       0x59 build/doomstat.o
 .debug_abbrev  0x0000084e       0x53 build/dstrings.o
 .debug_abbrev  0x000008a1       0xd8 build/d_event.o
 .debug_abbrev  0x00000979       0x89 build/d_items.o
 .debug_abbrev  0x00000a02      0x1ac build/d_iwad.o
 .debug_abbrev  0x00000bae      0x27a build/d_loop.o
 .debug_abbrev  0x00000e28      0x2f5 build/d_main.o
 .debug_abbrev  0x0000111d       0xd2 build/d_mode.o
 .debug_abbrev  0x000011ef      0x1f0 build/d_net.o
 .debug_abbrev  0x000013df      0x227 build/f_finale.o
 .debug_abbrev  0x00001606      0x148 build/f_wipe.o
 .debug_abbrev  0x0000174e      0x321 build/g_game.o
 .debug_abbrev  0x00001a6f      0x207 build/hu_lib.o
 .debug_abbrev  0x00001c76      0x245 build/hu_stuff.o
 .debug_abbrev  0x00001ebb       0xf0 build/info.o
 .debug_abbrev  0x00001fab       0x58 build/i_endoom.o
 .debug_abbrev  0x00002003       0xb0 build/i_joystick.o
 .debug_abbrev  0x000020b3      0x1ee build/i_sound.o
 .debug_abbrev  0x000022a1      0x2a5 build/i_system.o
 .debug_abbrev  0x00002546       0xc3 build/i_timer.o
 .debug_abbrev  0x00002609      0x113 build/m_argv.o
 .debug_abbrev  0x0000271c       0x7b build/m_bbox.o
 .debug_abbrev  0x00002797       0xc9 build/m_cheat.o
 .debug_abbrev  0x00002860      0x1c2 build/m_config.o
 .debug_abbrev  0x00002a22       0xb8 build/m_controls.o
 .debug_abbrev  0x00002ada       0x70 build/m_fixed.o
 .debug_abbrev  0x00002b4a      0x269 build/m_menu.o
 .debug_abbrev  0x00002db3      0x1cd build/m_misc.o
 .debug_abbrev  0x00002f80       0x8e build/m_random.o
 .debug_abbrev  0x0000300e      0x1f7 build/p_ceilng.o
 .debug_abbrev  0x00003205      0x19f build/p_doors.o
 .debug_abbrev  0x000033a4      0x26f build/p_enemy.o
 .debug_abbrev  0x00003613      0x1b1 build/p_floor.o
 .debug_abbrev  0x000037c4      0x277 build/p_inter.o
 .debug_abbrev  0x00003a3b      0x186 build/p_lights.o
 .debug_abbrev  0x00003bc1      0x219 build/p_map.o
 .debug_abbrev  0x00003dda      0x22c build/p_maputl.o
 .debug_abbrev  0x00004006      0x1fd build/p_mobj.o
 .debug_abbrev  0x00004203      0x1fd build/p_plats.o
 .debug_abbrev  0x00004400      0x21c build/p_pspr.o
 .debug_abbrev  0x0000461c      0x331 build/p_saveg.o
 .debug_abbrev  0x0000494d      0x255 build/p_setup.o
 .debug_abbrev  0x00004ba2      0x1aa build/p_sight.o
 .debug_abbrev  0x00004d4c      0x2a5 build/p_spec.o
 .debug_abbrev  0x00004ff1      0x18c build/p_switch.o
 .debug_abbrev  0x0000517d      0x148 build/p_telept.o
 .debug_abbrev  0x000052c5       0xef build/p_tick.o
 .debug_abbrev  0x000053b4      0x157 build/p_user.o
 .debug_abbrev  0x0000550b      0x1e1 build/r_bsp.o
 .debug_abbrev  0x000056ec      0x207 build/r_data.o
 .debug_abbrev  0x000058f3      0x180 build/r_draw.o
 .debug_abbrev  0x00005a73      0x230 build/r_main.o
 .debug_abbrev  0x00005ca3      0x188 build/r_plane.o
 .debug_abbrev  0x00005e2b      0x1a4 build/r_segs.o
 .debug_abbrev  0x00005fcf       0x46 build/r_sky.o
 .debug_abbrev  0x00006015      0x228 build/r_things.o
 .debug_abbrev  0x0000623d      0x19c build/sha1.o
 .debug_abbrev  0x000063d9       0x8e build/sounds.o
 .debug_abbrev  0x00006467       0xc7 build/statdump.o
 .debug_abbrev  0x0000652e      0x154 build/st_lib.o
 .debug_abbrev  0x00006682      0x27c build/st_stuff.o
 .debug_abbrev  0x000068fe      0x2b7 build/s_sound.o
 .debug_abbrev  0x00006bb5       0xb4 build/tables.o
 .debug_abbrev  0x00006c69      0x1e5 build/v_video.o
 .debug_abbrev  0x00006e4e      0x23e build/wi_stuff.o
 .debug_abbrev  0x0000708c      0x165 build/w_checksum.o
 .debug_abbrev  0x000071f1      0x109 build/w_file.o
 .debug_abbrev  0x000072fa       0x8d build/w_main.o
 .debug_abbrev  0x00007387      0x226 build/w_wad.o
 .debug_abbrev  0x000075ad      0x196 build/z_zone.o
 .debug_abbrev  0x00007743      0x143 build/w_file_stdc.o
 .debug_abbrev  0x00007886      0x172 build/i_input.o
 .debug_abbrev  0x000079f8      0x1c1 build/i_video.o
 .debug_abbrev  0x00007bb9       0x69 build/doomgeneric.o
 .debug_abbrev  0x00007c22      0x1e8 build/doomgeneric_xlib.o

.debug_line     0x00000000     0x97c0
 *(.debug_line .debug_line.* .debug_line_end)
 .debug_line    0x00000000       0xf3 build/button.o
 .debug_line    0x000000f3      0x10c build/fnd.o
 .debug_line    0x000001ff       0x6d build/lcdtext.o
 .debug_line    0x0000026c       0x81 build/led.o
 .debug_line    0x000002ed       0xe3 build/colorled.o
 .debug_line    0x000003d0       0x81 build/accelMagGyro.o
 .debug_line    0x00000451       0x49 build/dummy.o
 .debug_line    0x0000049a      0x47e build/am_map.o
 .debug_line    0x00000918       0x47 build/doomstat.o
 .debug_line    0x0000095f       0x2b build/dstrings.o
 .debug_line    0x0000098a       0x5c build/d_event.o
 .debug_line    0x000009e6       0x46 build/d_items.o
 .debug_line    0x00000a2c      0x115 build/d_iwad.o
 .debug_line    0x00000b41      0x21f build/d_loop.o
 .debug_line    0x00000d60      0x424 build/d_main.o
 .debug_line    0x00001184       0x92 build/d_mode.o
 .debug_line    0x00001216      0x188 build/d_net.o
 .debug_line    0x0000139e      0x26a build/f_finale.o
 .debug_line    0x00001608      0x109 build/f_wipe.o
 .debug_line    0x00001711      0x75a build/g_game.o
 .debug_line    0x00001e6b      0x1b9 build/hu_lib.o
 .debug_line    0x00002024      0x232 build/hu_stuff.o
 .debug_line    0x00002256       0x40 build/info.o
 .debug_line    0x00002296       0x3e build/i_endoom.o
 .debug_line    0x000022d4       0x5f build/i_joystick.o
 .debug_line    0x00002333       0xbc build/i_sound.o
 .debug_line    0x000023ef      0x119 build/i_system.o
 .debug_line    0x00002508       0x5b build/i_timer.o
 .debug_line    0x00002563       0x67 build/m_argv.o
 .debug_line    0x000025ca       0x57 build/m_bbox.o
 .debug_line    0x00002621       0x6c build/m_cheat.o
 .debug_line    0x0000268d       0xf6 build/m_config.o
 .debug_line    0x00002783       0xf0 build/m_controls.o
 .debug_line    0x00002873       0x4b build/m_fixed.o
 .debug_line    0x000028be      0x766 build/m_menu.o
 .debug_line    0x00003024      0x17d build/m_misc.o
 .debug_line    0x000031a1       0x4d build/m_random.o
 .debug_line    0x000031ee      0x17b build/p_ceilng.o
 .debug_line    0x00003369      0x1f7 build/p_doors.o
 .debug_line    0x00003560      0x583 build/p_enemy.o
 .debug_line    0x00003ae3      0x220 build/p_floor.o
 .debug_line    0x00003d03      0x336 build/p_inter.o
 .debug_line    0x00004039      0x1aa build/p_lights.o
 .debug_line    0x000041e3      0x471 build/p_map.o
 .debug_line    0x00004654      0x2f2 build/p_maputl.o
 .debug_line    0x00004946      0x33f build/p_mobj.o
 .debug_line    0x00004c85      0x19c build/p_plats.o
 .debug_line    0x00004e21      0x2f6 build/p_pspr.o
 .debug_line    0x00005117      0x74b build/p_saveg.o
 .debug_line    0x00005862      0x320 build/p_setup.o
 .debug_line    0x00005b82      0x1ad build/p_sight.o
 .debug_line    0x00005d2f      0x3d1 build/p_spec.o
 .debug_line    0x00006100      0x1ff build/p_switch.o
 .debug_line    0x000062ff      0x10e build/p_telept.o
 .debug_line    0x0000640d       0x7d build/p_tick.o
 .debug_line    0x0000648a      0x18f build/p_user.o
 .debug_line    0x00006619      0x1f4 build/r_bsp.o
 .debug_line    0x0000680d      0x2eb build/r_data.o
 .debug_line    0x00006af8      0x278 build/r_draw.o
 .debug_line    0x00006d70      0x331 build/r_main.o
 .debug_line    0x000070a1      0x17c build/r_plane.o
 .debug_line    0x0000721d      0x458 build/r_segs.o
 .debug_line    0x00007675       0x3a build/r_sky.o
 .debug_line    0x000076af      0x3bb build/r_things.o
 .debug_line    0x00007a6a      0x2f7 build/sha1.o
 .debug_line    0x00007d61       0x38 build/sounds.o
 .debug_line    0x00007d99       0x64 build/statdump.o
 .debug_line    0x00007dfd      0x12d build/st_lib.o
 .debug_line    0x00007f2a      0x549 build/st_stuff.o
 .debug_line    0x00008473      0x23b build/s_sound.o
 .debug_line    0x000086ae       0x43 build/tables.o
 .debug_line    0x000086f1      0x307 build/v_video.o
 .debug_line    0x000089f8      0x54a build/wi_stuff.o
 .debug_line    0x00008f42       0x8c build/w_checksum.o
 .debug_line    0x00008fce       0x69 build/w_file.o
 .debug_line    0x00009037       0x5d build/w_main.o
 .debug_line    0x00009094      0x19e build/w_wad.o
 .debug_line    0x00009232      0x16b build/z_zone.o
 .debug_line    0x0000939d       0x89 build/w_file_stdc.o
 .debug_line    0x00009426       0xb8 build/i_input.o
 .debug_line    0x000094de      0x163 build/i_video.o
 .debug_line    0x00009641       0x49 build/doomgeneric.o
 .debug_line    0x0000968a      0x136 build/doomgeneric_xlib.o

.debug_frame
 *(.debug_frame)

.debug_str      0x00000000     0xd52e
 *(.debug_str)
 .debug_str     0x00000000      0x30b build/button.o
                                0x376 (size before relaxing)
 .debug_str     0x0000030b      0x105 build/fnd.o
                                0x1d5 (size before relaxing)
 .debug_str     0x00000410       0x85 build/lcdtext.o
                                0x11c (size before relaxing)
 .debug_str     0x00000495       0x54 build/led.o
                                 0xfb (size before relaxing)
 .debug_str     0x000004e9       0x85 build/colorled.o
                                0x11c (size before relaxing)
 .debug_str     0x0000056e       0x3c build/accelMagGyro.o
                                0x286 (size before relaxing)
 .debug_str     0x000005aa       0x51 build/dummy.o
                                 0xd2 (size before relaxing)
 .debug_str     0x000005fb     0x40a4 build/am_map.o
                               0x43f3 (size before relaxing)
 .debug_str     0x0000469f      0x18e build/doomstat.o
                                0x243 (size before relaxing)
 .debug_str     0x0000482d       0x25 build/dstrings.o
                                 0xaf (size before relaxing)
 .debug_str     0x00004852       0x43 build/d_event.o
                                0x12a (size before relaxing)
 .debug_str     0x00004895       0x91 build/d_items.o
                                0x11b (size before relaxing)
 .debug_str     0x00004926      0x153 build/d_iwad.o
                                0x2f0 (size before relaxing)
 .debug_str     0x00004a79      0x3b8 build/d_loop.o
                                0x5a8 (size before relaxing)
 .debug_str     0x00004e31      0x76e build/d_main.o
                                0xb14 (size before relaxing)
 .debug_str     0x0000559f       0x8d build/d_mode.o
                                0x2ae (size before relaxing)
 .debug_str     0x0000562c       0x98 build/d_net.o
                               0x3e2c (size before relaxing)
 .debug_str     0x000056c4      0x6b4 build/f_finale.o
                               0x4436 (size before relaxing)
 .debug_str     0x00005d78       0xfe build/f_wipe.o
                                0x251 (size before relaxing)
 .debug_str     0x00005e76      0x816 build/g_game.o
                               0x4f0c (size before relaxing)
 .debug_str     0x0000668c      0x1f0 build/hu_lib.o
                                0x316 (size before relaxing)
 .debug_str     0x0000687c      0x1a4 build/hu_stuff.o
                               0x45f8 (size before relaxing)
 .debug_str     0x00006a20       0x20 build/info.o
                               0x32a7 (size before relaxing)
 .debug_str     0x00006a40       0x20 build/i_endoom.o
                                 0xbc (size before relaxing)
 .debug_str     0x00006a60       0xfd build/i_joystick.o
                                0x18e (size before relaxing)
 .debug_str     0x00006b5d      0x3e5 build/i_sound.o
                                0x578 (size before relaxing)
 .debug_str     0x00006f42      0x220 build/i_system.o
                                0x363 (size before relaxing)
 .debug_str     0x00007162       0x5b build/i_timer.o
                                 0xfc (size before relaxing)
 .debug_str     0x000071bd       0x90 build/m_argv.o
                                0x13f (size before relaxing)
 .debug_str     0x0000724d       0x41 build/m_bbox.o
                                 0xd6 (size before relaxing)
 .debug_str     0x0000728e       0x2a build/m_cheat.o
                                0x13f (size before relaxing)
 .debug_str     0x000072b8      0x2a6 build/m_config.o
                                0x3cc (size before relaxing)
 .debug_str     0x0000755e      0x6a4 build/m_controls.o
                                0x74e (size before relaxing)
 .debug_str     0x00007c02       0x24 build/m_fixed.o
                                 0xca (size before relaxing)
 .debug_str     0x00007c26      0x73b build/m_menu.o
                               0x1131 (size before relaxing)
 .debug_str     0x00008361      0x189 build/m_misc.o
                                0x51a (size before relaxing)
 .debug_str     0x000084ea       0x3e build/m_random.o
                                 0xda (size before relaxing)
 .debug_str     0x00008528      0x13c build/p_ceilng.o
                               0x439a (size before relaxing)
 .debug_str     0x00008664      0x1b4 build/p_doors.o
                               0x4450 (size before relaxing)
 .debug_str     0x00008818      0x581 build/p_enemy.o
                               0x4ab3 (size before relaxing)
 .debug_str     0x00008d99       0xfb build/p_floor.o
                               0x4454 (size before relaxing)
 .debug_str     0x00008e94      0x125 build/p_inter.o
                               0x4681 (size before relaxing)
 .debug_str     0x00008fb9      0x133 build/p_lights.o
                               0x3f20 (size before relaxing)
 .debug_str     0x000090ec      0x341 build/p_map.o
                               0x46fe (size before relaxing)
 .debug_str     0x0000942d      0x27a build/p_maputl.o
                               0x41ff (size before relaxing)
 .debug_str     0x000096a7      0x177 build/p_mobj.o
                               0x46a2 (size before relaxing)
 .debug_str     0x0000981e       0x8a build/p_plats.o
                               0x4387 (size before relaxing)
 .debug_str     0x000098a8      0x1d7 build/p_pspr.o
                               0x4664 (size before relaxing)
 .debug_str     0x00009a7f      0x4a4 build/p_saveg.o
                               0x48fd (size before relaxing)
 .debug_str     0x00009f23      0x31a build/p_setup.o
                               0x4264 (size before relaxing)
 .debug_str     0x0000a23d       0x9e build/p_sight.o
                               0x3eed (size before relaxing)
 .debug_str     0x0000a2db      0x271 build/p_spec.o
                               0x4811 (size before relaxing)
 .debug_str     0x0000a54c       0xe8 build/p_switch.o
                               0x4515 (size before relaxing)
 .debug_str     0x0000a634       0x1c build/p_telept.o
                               0x440b (size before relaxing)
 .debug_str     0x0000a650       0x69 build/p_tick.o
                                0x178 (size before relaxing)
 .debug_str     0x0000a6b9       0x5a build/p_user.o
                               0x4022 (size before relaxing)
 .debug_str     0x0000a713      0x161 build/r_bsp.o
                               0x3f9f (size before relaxing)
 .debug_str     0x0000a874      0x3cd build/r_data.o
                                0x679 (size before relaxing)
 .debug_str     0x0000ac41      0x22b build/r_draw.o
                                0x421 (size before relaxing)
 .debug_str     0x0000ae6c      0x280 build/r_main.o
                               0x410f (size before relaxing)
 .debug_str     0x0000b0ec      0x187 build/r_plane.o
                                0x350 (size before relaxing)
 .debug_str     0x0000b273      0x1c6 build/r_segs.o
                               0x4047 (size before relaxing)
 .debug_str     0x0000b439       0x39 build/r_sky.o
                                 0xbe (size before relaxing)
 .debug_str     0x0000b472      0x28d build/r_things.o
                               0x4422 (size before relaxing)
 .debug_str     0x0000b6ff       0x97 build/sha1.o
                                0x1a1 (size before relaxing)
 .debug_str     0x0000b796       0x23 build/sounds.o
                                0x125 (size before relaxing)
 .debug_str     0x0000b7b9       0x30 build/statdump.o
                                0x17f (size before relaxing)
 .debug_str     0x0000b7e9      0x11b build/st_lib.o
                                0x28d (size before relaxing)
 .debug_str     0x0000b904      0x463 build/st_stuff.o
                               0x490a (size before relaxing)
 .debug_str     0x0000bd67      0x18b build/s_sound.o
                               0x4817 (size before relaxing)
 .debug_str     0x0000bef2       0x48 build/tables.o
                                0x111 (size before relaxing)
 .debug_str     0x0000bf3a      0x2bd build/v_video.o
                                0x4d4 (size before relaxing)
 .debug_str     0x0000c1f7      0x44a build/wi_stuff.o
                               0x4be5 (size before relaxing)
 .debug_str     0x0000c641       0x6b build/w_checksum.o
                                0x216 (size before relaxing)
 .debug_str     0x0000c6ac       0x43 build/w_file.o
                                0x175 (size before relaxing)
 .debug_str     0x0000c6ef       0x1c build/w_main.o
                                 0xd7 (size before relaxing)
 .debug_str     0x0000c70b      0x17c build/w_wad.o
                                0x410 (size before relaxing)
 .debug_str     0x0000c887       0xe4 build/z_zone.o
                                0x3d8 (size before relaxing)
 .debug_str     0x0000c96b       0x62 build/w_file_stdc.o
                                0x3a6 (size before relaxing)
 .debug_str     0x0000c9cd       0xb4 build/i_input.o
                                0x1fd (size before relaxing)
 .debug_str     0x0000ca81      0x295 build/i_video.o
                                0x441 (size before relaxing)
 .debug_str     0x0000cd16       0x39 build/doomgeneric.o
                                 0xe3 (size before relaxing)
 .debug_str     0x0000cd4f      0x7df build/doomgeneric_xlib.o
                                0xa38 (size before relaxing)

.debug_loc      0x00000000    0x11f6b
 *(.debug_loc)
 .debug_loc     0x00000000       0x8e build/button.o
 .debug_loc     0x0000008e      0x1df build/fnd.o
 .debug_loc     0x0000026d       0x7b build/lcdtext.o
 .debug_loc     0x000002e8       0xac build/led.o
 .debug_loc     0x00000394      0x26f build/colorled.o
 .debug_loc     0x00000603       0x5a build/accelMagGyro.o
 .debug_loc     0x0000065d        0x0 build/dummy.o
 .debug_loc     0x0000065d      0x8e3 build/am_map.o
 .debug_loc     0x00000f40        0x0 build/doomstat.o
 .debug_loc     0x00000f40        0x0 build/dstrings.o
 .debug_loc     0x00000f40       0x26 build/d_event.o
 .debug_loc     0x00000f66        0x0 build/d_items.o
 .debug_loc     0x00000f66      0x4eb build/d_iwad.o
 .debug_loc     0x00001451      0x25d build/d_loop.o
 .debug_loc     0x000016ae      0x23a build/d_main.o
 .debug_loc     0x000018e8      0x183 build/d_mode.o
 .debug_loc     0x00001a6b       0x6f build/d_net.o
 .debug_loc     0x00001ada      0x324 build/f_finale.o
 .debug_loc     0x00001dfe      0x4d6 build/f_wipe.o
 .debug_loc     0x000022d4      0xa2a build/g_game.o
 .debug_loc     0x00002cfe      0x45d build/hu_lib.o
 .debug_loc     0x0000315b      0x1b6 build/hu_stuff.o
 .debug_loc     0x00003311        0x0 build/info.o
 .debug_loc     0x00003311        0x0 build/i_endoom.o
 .debug_loc     0x00003311       0x1f build/i_joystick.o
 .debug_loc     0x00003330       0x5f build/i_sound.o
 .debug_loc     0x0000338f      0x2ff build/i_system.o
 .debug_loc     0x0000368e       0x26 build/i_timer.o
 .debug_loc     0x000036b4       0x89 build/m_argv.o
 .debug_loc     0x0000373d       0x13 build/m_bbox.o
 .debug_loc     0x00003750       0x65 build/m_cheat.o
 .debug_loc     0x000037b5      0x2d3 build/m_config.o
 .debug_loc     0x00003a88       0x3d build/m_controls.o
 .debug_loc     0x00003ac5       0x6d build/m_fixed.o
 .debug_loc     0x00003b32      0xc48 build/m_menu.o
 .debug_loc     0x0000477a      0x77c build/m_misc.o
 .debug_loc     0x00004ef6        0x0 build/m_random.o
 .debug_loc     0x00004ef6      0x275 build/p_ceilng.o
 .debug_loc     0x0000516b      0x2c1 build/p_doors.o
 .debug_loc     0x0000542c      0xf6a build/p_enemy.o
 .debug_loc     0x00006396      0x505 build/p_floor.o
 .debug_loc     0x0000689b      0x56d build/p_inter.o
 .debug_loc     0x00006e08      0x2f5 build/p_lights.o
 .debug_loc     0x000070fd      0xc02 build/p_map.o
 .debug_loc     0x00007cff      0xb3d build/p_maputl.o
 .debug_loc     0x0000883c      0x7ed build/p_mobj.o
 .debug_loc     0x00009029      0x2c8 build/p_plats.o
 .debug_loc     0x000092f1      0x908 build/p_pspr.o
 .debug_loc     0x00009bf9      0x545 build/p_saveg.o
 .debug_loc     0x0000a13e      0x80e build/p_setup.o
 .debug_loc     0x0000a94c      0x39b build/p_sight.o
 .debug_loc     0x0000ace7      0x882 build/p_spec.o
 .debug_loc     0x0000b569      0x251 build/p_switch.o
 .debug_loc     0x0000b7ba      0x11a build/p_telept.o
 .debug_loc     0x0000b8d4       0x26 build/p_tick.o
 .debug_loc     0x0000b8fa      0x18a build/p_user.o
 .debug_loc     0x0000ba84      0x363 build/r_bsp.o
 .debug_loc     0x0000bde7      0x816 build/r_data.o
 .debug_loc     0x0000c5fd      0x5b6 build/r_draw.o
 .debug_loc     0x0000cbb3      0x721 build/r_main.o
 .debug_loc     0x0000d2d4      0x35b build/r_plane.o
 .debug_loc     0x0000d62f      0x370 build/r_segs.o
 .debug_loc     0x0000d99f        0x0 build/r_sky.o
 .debug_loc     0x0000d99f      0x812 build/r_things.o
 .debug_loc     0x0000e1b1      0xcf6 build/sha1.o
 .debug_loc     0x0000eea7        0x0 build/sounds.o
 .debug_loc     0x0000eea7       0x1e build/statdump.o
 .debug_loc     0x0000eec5      0x2c6 build/st_lib.o
 .debug_loc     0x0000f18b      0x61f build/st_stuff.o
 .debug_loc     0x0000f7aa      0x44e build/s_sound.o
 .debug_loc     0x0000fbf8       0x3c build/tables.o
 .debug_loc     0x0000fc34      0xe28 build/v_video.o
 .debug_loc     0x00010a5c      0x6fa build/wi_stuff.o
 .debug_loc     0x00011156       0xbf build/w_checksum.o
 .debug_loc     0x00011215       0x4f build/w_file.o
 .debug_loc     0x00011264       0x31 build/w_main.o
 .debug_loc     0x00011295      0x3a1 build/w_wad.o
 .debug_loc     0x00011636      0x35d build/z_zone.o
 .debug_loc     0x00011993       0xc7 build/w_file_stdc.o
 .debug_loc     0x00011a5a       0x91 build/i_input.o
 .debug_loc     0x00011aeb      0x2aa build/i_video.o
 .debug_loc     0x00011d95       0x26 build/doomgeneric.o
 .debug_loc     0x00011dbb      0x1b0 build/doomgeneric_xlib.o

.debug_macinfo  0x00000000        0x0
 *(.debug_macinfo)
 .debug_macinfo
                0x00000000        0x0 build/button.o
 .debug_macinfo
                0x00000000        0x0 build/fnd.o
 .debug_macinfo
                0x00000000        0x0 build/lcdtext.o
 .debug_macinfo
                0x00000000        0x0 build/led.o
 .debug_macinfo
                0x00000000        0x0 build/colorled.o
 .debug_macinfo
                0x00000000        0x0 build/accelMagGyro.o
 .debug_macinfo
                0x00000000        0x0 build/dummy.o
 .debug_macinfo
                0x00000000        0x0 build/am_map.o
 .debug_macinfo
                0x00000000        0x0 build/doomstat.o
 .debug_macinfo
                0x00000000        0x0 build/dstrings.o
 .debug_macinfo
                0x00000000        0x0 build/d_event.o
 .debug_macinfo
                0x00000000        0x0 build/d_items.o
 .debug_macinfo
                0x00000000        0x0 build/d_iwad.o
 .debug_macinfo
                0x00000000        0x0 build/d_loop.o
 .debug_macinfo
                0x00000000        0x0 build/d_main.o
 .debug_macinfo
                0x00000000        0x0 build/d_mode.o
 .debug_macinfo
                0x00000000        0x0 build/d_net.o
 .debug_macinfo
                0x00000000        0x0 build/f_finale.o
 .debug_macinfo
                0x00000000        0x0 build/f_wipe.o
 .debug_macinfo
                0x00000000        0x0 build/g_game.o
 .debug_macinfo
                0x00000000        0x0 build/hu_lib.o
 .debug_macinfo
                0x00000000        0x0 build/hu_stuff.o
 .debug_macinfo
                0x00000000        0x0 build/info.o
 .debug_macinfo
                0x00000000        0x0 build/i_endoom.o
 .debug_macinfo
                0x00000000        0x0 build/i_joystick.o
 .debug_macinfo
                0x00000000        0x0 build/i_sound.o
 .debug_macinfo
                0x00000000        0x0 build/i_system.o
 .debug_macinfo
                0x00000000        0x0 build/i_timer.o
 .debug_macinfo
                0x00000000        0x0 build/m_argv.o
 .debug_macinfo
                0x00000000        0x0 build/m_bbox.o
 .debug_macinfo
                0x00000000        0x0 build/m_cheat.o
 .debug_macinfo
                0x00000000        0x0 build/m_config.o
 .debug_macinfo
                0x00000000        0x0 build/m_controls.o
 .debug_macinfo
                0x00000000        0x0 build/m_fixed.o
 .debug_macinfo
                0x00000000        0x0 build/m_menu.o
 .debug_macinfo
                0x00000000        0x0 build/m_misc.o
 .debug_macinfo
                0x00000000        0x0 build/m_random.o
 .debug_macinfo
                0x00000000        0x0 build/p_ceilng.o
 .debug_macinfo
                0x00000000        0x0 build/p_doors.o
 .debug_macinfo
                0x00000000        0x0 build/p_enemy.o
 .debug_macinfo
                0x00000000        0x0 build/p_floor.o
 .debug_macinfo
                0x00000000        0x0 build/p_inter.o
 .debug_macinfo
                0x00000000        0x0 build/p_lights.o
 .debug_macinfo
                0x00000000        0x0 build/p_map.o
 .debug_macinfo
                0x00000000        0x0 build/p_maputl.o
 .debug_macinfo
                0x00000000        0x0 build/p_mobj.o
 .debug_macinfo
                0x00000000        0x0 build/p_plats.o
 .debug_macinfo
                0x00000000        0x0 build/p_pspr.o
 .debug_macinfo
                0x00000000        0x0 build/p_saveg.o
 .debug_macinfo
                0x00000000        0x0 build/p_setup.o
 .debug_macinfo
                0x00000000        0x0 build/p_sight.o
 .debug_macinfo
                0x00000000        0x0 build/p_spec.o
 .debug_macinfo
                0x00000000        0x0 build/p_switch.o
 .debug_macinfo
                0x00000000        0x0 build/p_telept.o
 .debug_macinfo
                0x00000000        0x0 build/p_tick.o
 .debug_macinfo
                0x00000000        0x0 build/p_user.o
 .debug_macinfo
                0x00000000        0x0 build/r_bsp.o
 .debug_macinfo
                0x00000000        0x0 build/r_data.o
 .debug_macinfo
                0x00000000        0x0 build/r_draw.o
 .debug_macinfo
                0x00000000        0x0 build/r_main.o
 .debug_macinfo
                0x00000000        0x0 build/r_plane.o
 .debug_macinfo
                0x00000000        0x0 build/r_segs.o
 .debug_macinfo
                0x00000000        0x0 build/r_sky.o
 .debug_macinfo
                0x00000000        0x0 build/r_things.o
 .debug_macinfo
                0x00000000        0x0 build/sha1.o
 .debug_macinfo
                0x00000000        0x0 build/sounds.o
 .debug_macinfo
                0x00000000        0x0 build/statdump.o
 .debug_macinfo
                0x00000000        0x0 build/st_lib.o
 .debug_macinfo
                0x00000000        0x0 build/st_stuff.o
 .debug_macinfo
                0x00000000        0x0 build/s_sound.o
 .debug_macinfo
                0x00000000        0x0 build/tables.o
 .debug_macinfo
                0x00000000        0x0 build/v_video.o
 .debug_macinfo
                0x00000000        0x0 build/wi_stuff.o
 .debug_macinfo
                0x00000000        0x0 build/w_checksum.o
 .debug_macinfo
                0x00000000        0x0 build/w_file.o
 .debug_macinfo
                0x00000000        0x0 build/w_main.o
 .debug_macinfo
                0x00000000        0x0 build/w_wad.o
 .debug_macinfo
                0x00000000        0x0 build/z_zone.o
 .debug_macinfo
                0x00000000        0x0 build/w_file_stdc.o
 .debug_macinfo
                0x00000000        0x0 build/i_input.o
 .debug_macinfo
                0x00000000        0x0 build/i_video.o
 .debug_macinfo
                0x00000000        0x0 build/doomgeneric.o
 .debug_macinfo
                0x00000000        0x0 build/doomgeneric_xlib.o

.debug_weaknames
 *(.debug_weaknames)

.debug_funcnames
 *(.debug_funcnames)

.debug_typenames
 *(.debug_typenames)

.debug_varnames
 *(.debug_varnames)

.debug_pubtypes
                0x00000000     0x6719
 *(.debug_pubtypes)
 .debug_pubtypes
                0x00000000      0x151 build/button.o
 .debug_pubtypes
                0x00000151       0x7b build/fnd.o
 .debug_pubtypes
                0x000001cc       0x53 build/lcdtext.o
 .debug_pubtypes
                0x0000021f       0x34 build/led.o
 .debug_pubtypes
                0x00000253       0x1a build/colorled.o
 .debug_pubtypes
                0x0000026d       0xcd build/accelMagGyro.o
 .debug_pubtypes
                0x0000033a       0x1e build/dummy.o
 .debug_pubtypes
                0x00000358      0x293 build/am_map.o
 .debug_pubtypes
                0x000005eb       0x5a build/doomstat.o
 .debug_pubtypes
                0x00000645       0x1b build/dstrings.o
 .debug_pubtypes
                0x00000660       0x33 build/d_event.o
 .debug_pubtypes
                0x00000693       0x3a build/d_items.o
 .debug_pubtypes
                0x000006cd       0x77 build/d_iwad.o
 .debug_pubtypes
                0x00000744      0x116 build/d_loop.o
 .debug_pubtypes
                0x0000085a       0xed build/d_main.o
 .debug_pubtypes
                0x00000947       0x62 build/d_mode.o
 .debug_pubtypes
                0x000009a9      0x215 build/d_net.o
 .debug_pubtypes
                0x00000bbe      0x193 build/f_finale.o
 .debug_pubtypes
                0x00000d51       0x57 build/f_wipe.o
 .debug_pubtypes
                0x00000da8      0x2a9 build/g_game.o
 .debug_pubtypes
                0x00001051       0x87 build/hu_lib.o
 .debug_pubtypes
                0x000010d8      0x26a build/hu_stuff.o
 .debug_pubtypes
                0x00001342       0x97 build/info.o
 .debug_pubtypes
                0x000013d9       0x39 build/i_endoom.o
 .debug_pubtypes
                0x00001412       0x23 build/i_joystick.o
 .debug_pubtypes
                0x00001435       0x86 build/i_sound.o
 .debug_pubtypes
                0x000014bb       0xf5 build/i_system.o
 .debug_pubtypes
                0x000015b0       0x38 build/i_timer.o
 .debug_pubtypes
                0x000015e8       0x2f build/m_argv.o
 .debug_pubtypes
                0x00001617       0x26 build/m_bbox.o
 .debug_pubtypes
                0x0000163d       0x4e build/m_cheat.o
 .debug_pubtypes
                0x0000168b       0x73 build/m_config.o
 .debug_pubtypes
                0x000016fe       0x34 build/m_controls.o
 .debug_pubtypes
                0x00001732       0x44 build/m_fixed.o
 .debug_pubtypes
                0x00001776      0x121 build/m_menu.o
 .debug_pubtypes
                0x00001897      0x143 build/m_misc.o
 .debug_pubtypes
                0x000019da       0x2c build/m_random.o
 .debug_pubtypes
                0x00001a06      0x23c build/p_ceilng.o
 .debug_pubtypes
                0x00001c42      0x247 build/p_doors.o
 .debug_pubtypes
                0x00001e89      0x22e build/p_enemy.o
 .debug_pubtypes
                0x000020b7      0x253 build/p_floor.o
 .debug_pubtypes
                0x0000230a      0x22f build/p_inter.o
 .debug_pubtypes
                0x00002539      0x24e build/p_lights.o
 .debug_pubtypes
                0x00002787      0x240 build/p_map.o
 .debug_pubtypes
                0x000029c7      0x26a build/p_maputl.o
 .debug_pubtypes
                0x00002c31      0x225 build/p_mobj.o
 .debug_pubtypes
                0x00002e56      0x245 build/p_plats.o
 .debug_pubtypes
                0x0000309b      0x224 build/p_pspr.o
 .debug_pubtypes
                0x000032bf      0x36a build/p_saveg.o
 .debug_pubtypes
                0x00003629      0x2d2 build/p_setup.o
 .debug_pubtypes
                0x000038fb      0x264 build/p_sight.o
 .debug_pubtypes
                0x00003b5f      0x260 build/p_spec.o
 .debug_pubtypes
                0x00003dbf      0x23e build/p_switch.o
 .debug_pubtypes
                0x00003ffd      0x213 build/p_telept.o
 .debug_pubtypes
                0x00004210       0x7c build/p_tick.o
 .debug_pubtypes
                0x0000428c      0x215 build/p_user.o
 .debug_pubtypes
                0x000044a1      0x282 build/r_bsp.o
 .debug_pubtypes
                0x00004723      0x173 build/r_data.o
 .debug_pubtypes
                0x00004896       0x8e build/r_draw.o
 .debug_pubtypes
                0x00004924      0x274 build/r_main.o
 .debug_pubtypes
                0x00004b98       0xa8 build/r_plane.o
 .debug_pubtypes
                0x00004c40      0x26d build/r_segs.o
 .debug_pubtypes
                0x00004ead       0x1a build/r_sky.o
 .debug_pubtypes
                0x00004ec7      0x2bb build/r_things.o
 .debug_pubtypes
                0x00005182       0x99 build/sha1.o
 .debug_pubtypes
                0x0000521b       0x54 build/sounds.o
 .debug_pubtypes
                0x0000526f       0x4f build/statdump.o
 .debug_pubtypes
                0x000052be       0x80 build/st_lib.o
 .debug_pubtypes
                0x0000533e      0x2d6 build/st_stuff.o
 .debug_pubtypes
                0x00005614      0x247 build/s_sound.o
 .debug_pubtypes
                0x0000585b       0x6a build/tables.o
 .debug_pubtypes
                0x000058c5       0xb6 build/v_video.o
 .debug_pubtypes
                0x0000597b      0x2ad build/wi_stuff.o
 .debug_pubtypes
                0x00005c28       0xeb build/w_checksum.o
 .debug_pubtypes
                0x00005d13       0x9a build/w_file.o
 .debug_pubtypes
                0x00005dad       0x2f build/w_main.o
 .debug_pubtypes
                0x00005ddc       0xe7 build/w_wad.o
 .debug_pubtypes
                0x00005ec3       0xf9 build/z_zone.o
 .debug_pubtypes
                0x00005fbc      0x13c build/w_file_stdc.o
 .debug_pubtypes
                0x000060f8       0x7f build/i_input.o
 .debug_pubtypes
                0x00006177       0xed build/i_video.o
 .debug_pubtypes
                0x00006264       0x4d build/doomgeneric.o
 .debug_pubtypes
                0x000062b1      0x468 build/doomgeneric_xlib.o

.debug_ranges   0x00000000     0x2b50
 *(.debug_ranges)
 .debug_ranges  0x00000000       0x20 build/button.o
 .debug_ranges  0x00000020        0x0 build/fnd.o
 .debug_ranges  0x00000020        0x0 build/lcdtext.o
 .debug_ranges  0x00000020       0x98 build/led.o
 .debug_ranges  0x000000b8        0x0 build/colorled.o
 .debug_ranges  0x000000b8        0x0 build/accelMagGyro.o
 .debug_ranges  0x000000b8        0x0 build/dummy.o
 .debug_ranges  0x000000b8      0x200 build/am_map.o
 .debug_ranges  0x000002b8        0x0 build/doomstat.o
 .debug_ranges  0x000002b8        0x0 build/dstrings.o
 .debug_ranges  0x000002b8        0x0 build/d_event.o
 .debug_ranges  0x000002b8        0x0 build/d_items.o
 .debug_ranges  0x000002b8       0x78 build/d_iwad.o
 .debug_ranges  0x00000330      0x1f8 build/d_loop.o
 .debug_ranges  0x00000528      0x128 build/d_main.o
 .debug_ranges  0x00000650        0x0 build/d_mode.o
 .debug_ranges  0x00000650       0x88 build/d_net.o
 .debug_ranges  0x000006d8       0x90 build/f_finale.o
 .debug_ranges  0x00000768        0x0 build/f_wipe.o
 .debug_ranges  0x00000768      0x160 build/g_game.o
 .debug_ranges  0x000008c8       0x70 build/hu_lib.o
 .debug_ranges  0x00000938      0x278 build/hu_stuff.o
 .debug_ranges  0x00000bb0        0x0 build/info.o
 .debug_ranges  0x00000bb0        0x0 build/i_endoom.o
 .debug_ranges  0x00000bb0        0x0 build/i_joystick.o
 .debug_ranges  0x00000bb0        0x0 build/i_sound.o
 .debug_ranges  0x00000bb0       0x48 build/i_system.o
 .debug_ranges  0x00000bf8        0x0 build/i_timer.o
 .debug_ranges  0x00000bf8        0x0 build/m_argv.o
 .debug_ranges  0x00000bf8        0x0 build/m_bbox.o
 .debug_ranges  0x00000bf8        0x0 build/m_cheat.o
 .debug_ranges  0x00000bf8        0x0 build/m_config.o
 .debug_ranges  0x00000bf8        0x0 build/m_controls.o
 .debug_ranges  0x00000bf8       0x20 build/m_fixed.o
 .debug_ranges  0x00000c18      0x968 build/m_menu.o
 .debug_ranges  0x00001580       0x90 build/m_misc.o
 .debug_ranges  0x00001610        0x0 build/m_random.o
 .debug_ranges  0x00001610       0x30 build/p_ceilng.o
 .debug_ranges  0x00001640        0x0 build/p_doors.o
 .debug_ranges  0x00001640       0x30 build/p_enemy.o
 .debug_ranges  0x00001670       0x48 build/p_floor.o
 .debug_ranges  0x000016b8      0x160 build/p_inter.o
 .debug_ranges  0x00001818        0x0 build/p_lights.o
 .debug_ranges  0x00001818       0x80 build/p_map.o
 .debug_ranges  0x00001898       0x18 build/p_maputl.o
 .debug_ranges  0x000018b0        0x0 build/p_mobj.o
 .debug_ranges  0x000018b0       0x18 build/p_plats.o
 .debug_ranges  0x000018c8        0x0 build/p_pspr.o
 .debug_ranges  0x000018c8      0x1e8 build/p_saveg.o
 .debug_ranges  0x00001ab0       0x38 build/p_setup.o
 .debug_ranges  0x00001ae8        0x0 build/p_sight.o
 .debug_ranges  0x00001ae8      0x138 build/p_spec.o
 .debug_ranges  0x00001c20        0x0 build/p_switch.o
 .debug_ranges  0x00001c20        0x0 build/p_telept.o
 .debug_ranges  0x00001c20        0x0 build/p_tick.o
 .debug_ranges  0x00001c20        0x0 build/p_user.o
 .debug_ranges  0x00001c20        0x0 build/r_bsp.o
 .debug_ranges  0x00001c20       0x80 build/r_data.o
 .debug_ranges  0x00001ca0       0xa8 build/r_draw.o
 .debug_ranges  0x00001d48       0x18 build/r_main.o
 .debug_ranges  0x00001d60        0x0 build/r_plane.o
 .debug_ranges  0x00001d60        0x0 build/r_segs.o
 .debug_ranges  0x00001d60        0x0 build/r_sky.o
 .debug_ranges  0x00001d60        0x0 build/r_things.o
 .debug_ranges  0x00001d60       0x20 build/sha1.o
 .debug_ranges  0x00001d80        0x0 build/sounds.o
 .debug_ranges  0x00001d80        0x0 build/statdump.o
 .debug_ranges  0x00001d80        0x0 build/st_lib.o
 .debug_ranges  0x00001d80      0x700 build/st_stuff.o
 .debug_ranges  0x00002480       0xd8 build/s_sound.o
 .debug_ranges  0x00002558        0x0 build/tables.o
 .debug_ranges  0x00002558       0x18 build/v_video.o
 .debug_ranges  0x00002570      0x430 build/wi_stuff.o
 .debug_ranges  0x000029a0       0x48 build/w_checksum.o
 .debug_ranges  0x000029e8        0x0 build/w_file.o
 .debug_ranges  0x000029e8       0x18 build/w_main.o
 .debug_ranges  0x00002a00       0xd0 build/w_wad.o
 .debug_ranges  0x00002ad0        0x0 build/z_zone.o
 .debug_ranges  0x00002ad0        0x0 build/w_file_stdc.o
 .debug_ranges  0x00002ad0       0x80 build/i_input.o
 .debug_ranges  0x00002b50        0x0 build/i_video.o
 .debug_ranges  0x00002b50        0x0 build/doomgeneric.o
 .debug_ranges  0x00002b50        0x0 build/doomgeneric_xlib.o

.debug_macro
 *(.debug_macro)

.gnu.attributes
 *(.gnu.attributes)

.note.gnu.arm.ident
 *(.note.gnu.arm.ident)

/DISCARD/
 *(.note.GNU-stack)
 *(.gnu_debuglink)
 *(.gnu.lto_*)
OUTPUT(doomgeneric elf32-littlearm)
